LIBRARY sysCore
EXPORTS
    ??0ANode@@QAE@ABV0@@Z @1
    ??0ANode@@QAE@XZ @2
    ??0AgeServer@@QAE@ABV0@@Z @3
    ??0AgeServer@@QAE@XZ @4
    ??0AnimCacheInfo@@QAE@XZ @5
    ??0AnimContext@@QAE@ABV0@@Z @6
    ??0AnimContext@@QAE@PAVAnimData@@@Z @7
    ??0AnimContext@@QAE@XZ @8
    ??0AnimData@@QAE@ABV0@@Z @9
    ??0AnimData@@QAE@PAD@Z @10
    ??0AnimData@@QAE@XZ @11
    ??0AnimDca@@QAE@ABV0@@Z @12
    ??0AnimDca@@QAE@PAD@Z @13
    ??0AnimDca@@QAE@PAVBaseShape@@H@Z @14
    ??0AnimDck@@QAE@ABV0@@Z @15
    ??0AnimDck@@QAE@PAD@Z @16
    ??0AnimDck@@QAE@PAVBaseShape@@H@Z @17
    ??0AnimDck@@QAE@XZ @18
    ??0AnimFrameCacher@@QAE@H@Z @19
    ??0AnimJoint@@QAE@XZ @20
    ??0AnimPalette@@QAE@HH@Z @21
    ??0AnmobjInfo@@QAE@ABV0@@Z @22
    ??0AnmobjInfo@@QAE@XZ @23
    ??0AppWindow@@QAE@ABV0@@Z @24
    ??0AppWindow@@QAE@PAVUIWindow@@HHH_N@Z @25
    ??0AtxCommandStream@@QAE@ABV0@@Z @26
    ??0AtxCommandStream@@QAE@PAVBaseApp@@@Z @27
    ??0AtxDirectRouter@@QAE@ABV0@@Z @28
    ??0AtxDirectRouter@@QAE@PAD@Z @29
    ??0AtxFileStream@@QAE@ABV0@@Z @30
    ??0AtxFileStream@@QAE@XZ @31
    ??0AtxRouter@@QAE@ABV0@@Z @32
    ??0AtxRouter@@QAE@XZ @33
    ??0AtxStream@@QAE@ABV0@@Z @34
    ??0AtxStream@@QAE@XZ @35
    ??0AyuCache@@QAE@_I@Z @36
    ??0AyuHeap@@QAE@XZ @37
    ??0AyuStack@@QAE@XZ @38
    ??0BaseApp@@QAE@ABV0@@Z @39
    ??0BaseApp@@QAE@XZ @40
    ??0BaseCollTriInfo@@QAE@ABV0@@Z @41
    ??0BaseCollTriInfo@@QAE@XZ @42
    ??0BaseScalingSystem@@QAE@ABV0@@Z @43
    ??0BaseScalingSystem@@QAE@XZ @44
    ??0BaseShape@@QAE@ABV0@@Z @45
    ??0BaseShape@@QAE@XZ @46
    ??0BinobjInfo@@QAE@ABV0@@Z @47
    ??0BinobjInfo@@QAE@XZ @48
    ??0BoundBox@@QAE@AAVVector3f@@0@Z @49
    ??0BoundBox@@QAE@ABV0@@Z @50
    ??0BoundBox@@QAE@XZ @51
    ??0BufferedInputStream@@QAE@ABV0@@Z @52
    ??0BufferedInputStream@@QAE@PAVStream@@PA_EH@Z @53
    ??0BufferedInputStream@@QAE@XZ @54
    ??0BufferedOutputStream@@QAE@ABV0@@Z @55
    ??0BufferedOutputStream@@QAE@PAVStream@@H_N@Z @56
    ??0BufferedStream@@QAE@ABV0@@Z @57
    ??0BufferedStream@@QAE@PAVRandomAccessStream@@H@Z @58
    ??0BufferedStream@@QAE@XZ @59
    ??0CacheTexture@@QAE@ABV0@@Z @60
    ??0CacheTexture@@QAE@XZ @61
    ??0CachedShape@@QAE@XZ @62
    ??0CamDataInfo@@QAE@ABV0@@Z @63
    ??0CamDataInfo@@QAE@XZ @64
    ??0Camera@@QAE@ABV0@@Z @65
    ??0Camera@@QAE@XZ @66
    ??0ClassicScalingSystem@@QAE@ABV0@@Z @67
    ??0ClassicScalingSystem@@QAE@XZ @68
    ??0CmdStream@@QAE@PAVStream@@@Z @69
    ??0CmdStream@@QAE@XZ @70
    ??0CollGroup@@QAE@XZ @71
    ??0CollTriInfo@@QAE@ABV0@@Z @72
    ??0CollTriInfo@@QAE@XZ @73
    ??0Colour@@QAE@XZ @74
    ??0Colour@@QAE@_E000@Z @75
    ??0ComboBox@@QAE@ABV0@@Z @76
    ??0ComboBox@@QAE@PAVUIWindow@@HHH_N@Z @77
    ??0Controller@@QAE@ABV0@@Z @78
    ??0Controller@@QAE@_I@Z @79
    ??0ControllerMgr@@QAE@ABV0@@Z @80
    ??0ControllerMgr@@QAE@XZ @81
    ??0CoreNode@@QAE@ABV0@@Z @82
    ??0CoreNode@@QAE@PAD@Z @83
    ??0CullFrustum@@QAE@ABV0@@Z @84
    ??0CullFrustum@@QAE@XZ @85
    ??0CullingPlane@@QAE@ABV0@@Z @86
    ??0CullingPlane@@QAE@XZ @87
    ??0CurveSection@@QAE@XZ @88
    ??0DataChunk@@QAE@XZ @89
    ??0DispList@@QAE@ABV0@@Z @90
    ??0DispList@@QAE@H@Z @91
    ??0DispList@@QAE@XZ @92
    ??0DlobjInfo@@QAE@ABV0@@Z @93
    ??0DlobjInfo@@QAE@XZ @94
    ??0DrawInfo@@QAE@XZ @95
    ??0DynCollObject@@QAE@ABV0@@Z @96
    ??0DynCollObject@@QAE@XZ @97
    ??0EditBox@@QAE@ABV0@@Z @98
    ??0EditBox@@QAE@PAVUIWindow@@HHH_N@Z @99
    ??0EditNode@@QAE@ABV0@@Z @100
    ??0EditNode@@QAE@PAD@Z @101
    ??0Envelope@@QAE@XZ @102
    ??0FaceNode@@QAE@ABV0@@Z @103
    ??0FaceNode@@QAE@H@Z @104
    ??0FaceNode@@QAE@XZ @105
    ??0FntobjInfo@@QAE@ABV0@@Z @106
    ??0FntobjInfo@@QAE@XZ @107
    ??0FontChar@@QAE@XZ @108
    ??0GameApp@@QAE@ABV0@@Z @109
    ??0GameApp@@QAE@XZ @110
    ??0GfxInfo@@QAE@ABV0@@Z @111
    ??0GfxInfo@@QAE@XZ @112
    ??0GfxObject@@QAE@ABV0@@Z @113
    ??0GfxObject@@QAE@XZ @114
    ??0GfxobjInfo@@QAE@ABV0@@Z @115
    ??0GfxobjInfo@@QAE@XZ @116
    ??0Graphics@@QAE@ABV0@@Z @117
    ??0Graphics@@QAE@XZ @118
    ??0HorzSplitBar@@QAE@ABV0@@Z @119
    ??0HorzSplitBar@@QAE@PAVUIWindow@@0KH@Z @120
    ??0ID32@@QAE@XZ @121
    ??0ID32@@QAE@_I@Z @122
    ??0Joint@@QAE@ABV0@@Z @123
    ??0Joint@@QAE@XZ @124
    ??0KRect@@QAE@ABV0@@Z @125
    ??0KRect@@QAE@XZ @126
    ??0KSegment@@QAE@ABV0@@Z @127
    ??0KSegment@@QAE@XZ @128
    ??0KTri@@QAE@ABV0@@Z @129
    ??0KTri@@QAE@XZ @130
    ??0KnotPoint@@QAE@ABV0@@Z @131
    ??0KnotPoint@@QAE@XZ @132
    ??0LFInfo@@QAE@ABV0@@Z @133
    ??0LFInfo@@QAE@XZ @134
    ??0LFlareGroup@@QAE@ABV0@@Z @135
    ??0LFlareGroup@@QAE@XZ @136
    ??0Light@@QAE@ABV0@@Z @137
    ??0Light@@QAE@XZ @138
    ??0LightCamera@@QAE@ABV0@@Z @139
    ??0LightCamera@@QAE@XZ @140
    ??0LightDataInfo@@QAE@ABV0@@Z @141
    ??0LightDataInfo@@QAE@XZ @142
    ??0LightFlare@@QAE@ABV0@@Z @143
    ??0LightFlare@@QAE@XZ @144
    ??0LightGroup@@QAE@ABV0@@Z @145
    ??0LightGroup@@QAE@XZ @146
    ??0LinkedRoomInfo@@QAE@ABV0@@Z @147
    ??0LinkedRoomInfo@@QAE@XZ @148
    ??0LodInfo@@QAE@XZ @149
    ??0MatPoly@Joint@@QAE@ABV01@@Z @150
    ??0MatPoly@Joint@@QAE@PAVMaterial@@PAVMesh@@@Z @151
    ??0MatPoly@Joint@@QAE@XZ @152
    ??0Material@@QAE@ABV0@@Z @153
    ??0Material@@QAE@XZ @154
    ??0MaterialHandler@@QAE@ABV0@@Z @155
    ??0MaterialHandler@@QAE@XZ @156
    ??0MatobjInfo@@QAE@ABV0@@Z @157
    ??0MatobjInfo@@QAE@XZ @158
    ??0Matrix3f@@IAE@W4do_not_initialize@0@@Z @159
    ??0Matrix3f@@QAE@ABVVector3f@@W4mode@0@@Z @160
    ??0Matrix3f@@QAE@PAY02M@Z @161
    ??0Matrix3f@@QAE@W4mode@0@@Z @162
    ??0Matrix3f@@QAE@XZ @163
    ??0Matrix4f@@QAE@QAY03M@Z @164
    ??0Matrix4f@@QAE@XZ @165
    ??0MemInfoNode@@QAE@ABV0@@Z @166
    ??0MemInfoNode@@QAE@XZ @167
    ??0Mesh@@QAE@ABV0@@Z @168
    ??0Mesh@@QAE@XZ @169
    ??0ModuleMgr@@QAE@XZ @170
    ??0MtxGroup@@QAE@XZ @171
    ??0Node@@QAE@ABV0@@Z @172
    ??0Node@@QAE@PAD@Z @173
    ??0NodeMgr@@QAE@ABV0@@Z @174
    ??0NodeMgr@@QAE@XZ @175
    ??0ObjCollInfo@@QAE@ABV0@@Z @176
    ??0ObjCollInfo@@QAE@XZ @177
    ??0ObjMgr@@QAE@ABV0@@Z @178
    ??0ObjMgr@@QAE@XZ @179
    ??0OptionBox@@QAE@ABV0@@Z @180
    ??0OptionBox@@QAE@PAVUIWindow@@HHH_N@Z @181
    ??0PVWLightingInfo@@QAE@XZ @182
    ??0PVWPolygonColourInfo@@QAE@XZ @183
    ??0PVWTevColReg@@QAE@XZ @184
    ??0PVWTevInfo@@QAE@XZ @185
    ??0PVWTextureData@@QAE@XZ @186
    ??0PVWTextureInfo@@QAE@ABV0@@Z @187
    ??0PVWTextureInfo@@QAE@XZ @188
    ??0Plane@@QAE@ABV0@@Z @189
    ??0Plane@@QAE@XZ @190
    ??0Quat@@QAE@ABV0@@Z @191
    ??0Quat@@QAE@MMMM@Z @192
    ??0Quat@@QAE@XZ @193
    ??0RamStream@@QAE@ABV0@@Z @194
    ??0RamStream@@QAE@PAXH@Z @195
    ??0RandomAccessStream@@QAE@ABV0@@Z @196
    ??0RandomAccessStream@@QAE@XZ @197
    ??0RectArea@@QAE@HHHH@Z @198
    ??0RectArea@@QAE@XZ @199
    ??0RenderWindow@@QAE@ABV0@@Z @200
    ??0RenderWindow@@QAE@PAVUIWindow@@HHH_N@Z @201
    ??0RouteGroup@@QAE@ABV0@@Z @202
    ??0RouteGroup@@QAE@XZ @203
    ??0RouteLink@@QAE@ABV0@@Z @204
    ??0RouteLink@@QAE@XZ @205
    ??0RoutePoint@@QAE@ABV0@@Z @206
    ??0RoutePoint@@QAE@XZ @207
    ??0SRT@@QAE@ABV0@@Z @208
    ??0SRT@@QAE@XZ @209
    ??0SRTNode@@QAE@ABV0@@Z @210
    ??0SRTNode@@QAE@PAD@Z @211
    ??0SceneData@@QAE@ABV0@@Z @212
    ??0SceneData@@QAE@XZ @213
    ??0Shape@@QAE@ABV0@@Z @214
    ??0Shape@@QAE@XZ @215
    ??0ShapeDynMaterials@@QAE@XZ @216
    ??0ShpobjInfo@@QAE@ABV0@@Z @217
    ??0ShpobjInfo@@QAE@XZ @218
    ??0SoftImageScalingSystem@@QAE@ABV0@@Z @219
    ??0SoftImageScalingSystem@@QAE@XZ @220
    ??0SplitBar@@QAE@ABV0@@Z @221
    ??0SplitBar@@QAE@PAVUIWindow@@0KH@Z @222
    ??0StdSystem@@QAE@ABV0@@Z @223
    ??0StdSystem@@QAE@XZ @224
    ??0Stream@@QAE@ABV0@@Z @225
    ??0Stream@@QAE@XZ @226
    ??0String@@QAE@H@Z @227
    ??0String@@QAE@PADH@Z @228
    ??0String@@QAE@XZ @229
    ??0System@@QAE@ABV0@@Z @230
    ??0System@@QAE@XZ @231
    ??0TcpStream@@QAE@ABV0@@Z @232
    ??0TcpStream@@QAE@PAVWSocket@@@Z @233
    ??0TcpStream@@QAE@XZ @234
    ??0TexAttr@@QAE@ABV0@@Z @235
    ??0TexAttr@@QAE@XZ @236
    ??0TexCacheInfo@@QAE@XZ @237
    ??0TexImg@@QAE@ABV0@@Z @238
    ??0TexImg@@QAE@XZ @239
    ??0TexobjInfo@@QAE@ABV0@@Z @240
    ??0TexobjInfo@@QAE@XZ @241
    ??0Texture@@QAE@ABV0@@Z @242
    ??0Texture@@QAE@XZ @243
    ??0TextureCacher@@QAE@_I@Z @244
    ??0TimerInf@@QAE@PAD@Z @245
    ??0Timers@@QAE@XZ @246
    ??0ToolWindow@@QAE@ABV0@@Z @247
    ??0ToolWindow@@QAE@PAVUIWindow@@HHH_N@Z @248
    ??0UIFrame@@QAE@ABV0@@Z @249
    ??0UIFrame@@QAE@XZ @250
    ??0UIMgr@@QAE@ABV0@@Z @251
    ??0UIMgr@@QAE@XZ @252
    ??0UIWindow@@QAE@ABV0@@Z @253
    ??0UIWindow@@QAE@PAV0@HHH_N@Z @254
    ??0UIWindow@@QAE@XZ @255
    ??0Vector2f@@QAE@ABM0@Z @256
    ??0Vector2f@@QAE@XZ @257
    ??0Vector3f@@QAE@ABM00@Z @258
    ??0Vector3f@@QAE@ABV0@@Z @259
    ??0Vector3f@@QAE@XZ @260
    ??0VertSplitBar@@QAE@ABV0@@Z @261
    ??0VertSplitBar@@QAE@PAVUIWindow@@0KH@Z @262
    ??1AppWindow@@QAE@XZ @263
    ??1BaseApp@@UAE@XZ @264
    ??1ComboBox@@QAE@XZ @265
    ??1EditBox@@QAE@XZ @266
    ??1GameApp@@UAE@XZ @267
    ??1HorzSplitBar@@QAE@XZ @268
    ??1Module@@QAE@XZ @269
    ??1ModuleMgr@@QAE@XZ @270
    ??1NodeMgr@@QAE@XZ @271
    ??1OptionBox@@QAE@XZ @272
    ??1RenderWindow@@QAE@XZ @273
    ??1SplitBar@@QAE@XZ @274
    ??1System@@QAE@XZ @275
    ??1Timers@@QAE@XZ @276
    ??1ToolWindow@@QAE@XZ @277
    ??1UIMgr@@QAE@XZ @278
    ??1UIWindow@@QAE@XZ @279
    ??1VertSplitBar@@QAE@XZ @280
    ??4ANode@@QAEAAV0@ABV0@@Z @281
    ??4AgeServer@@QAEAAV0@ABV0@@Z @282
    ??4AnimCacheInfo@@QAEAAV0@ABV0@@Z @283
    ??4AnimContext@@QAEAAV0@ABV0@@Z @284
    ??4AnimData@@QAEAAV0@ABV0@@Z @285
    ??4AnimDca@@QAEAAV0@ABV0@@Z @286
    ??4AnimDck@@QAEAAV0@ABV0@@Z @287
    ??4AnimFrameCacher@@QAEAAV0@ABV0@@Z @288
    ??4AnimJoint@@QAEAAV0@ABV0@@Z @289
    ??4AnimPalette@@QAEAAV0@ABV0@@Z @290
    ??4AnmobjInfo@@QAEAAV0@ABV0@@Z @291
    ??4AppWindow@@QAEAAV0@ABV0@@Z @292
    ??4AtxCommandStream@@QAEAAV0@ABV0@@Z @293
    ??4AtxDirectRouter@@QAEAAV0@ABV0@@Z @294
    ??4AtxFileStream@@QAEAAV0@ABV0@@Z @295
    ??4AtxRouter@@QAEAAV0@ABV0@@Z @296
    ??4AtxStream@@QAEAAV0@ABV0@@Z @297
    ??4AyuCache@@QAEAAV0@ABV0@@Z @298
    ??4AyuHeap@@QAEAAV0@ABV0@@Z @299
    ??4AyuStack@@QAEAAV0@ABV0@@Z @300
    ??4BaseApp@@QAEAAV0@ABV0@@Z @301
    ??4BaseCollTriInfo@@QAEAAV0@ABV0@@Z @302
    ??4BaseRoomInfo@@QAEAAV0@ABV0@@Z @303
    ??4BaseScalingSystem@@QAEAAV0@ABV0@@Z @304
    ??4BaseShape@@QAEAAV0@ABV0@@Z @305
    ??4BinobjInfo@@QAEAAV0@ABV0@@Z @306
    ??4BoundBox@@QAEAAV0@ABV0@@Z @307
    ??4BufferedInputStream@@QAEAAV0@ABV0@@Z @308
    ??4BufferedOutputStream@@QAEAAV0@ABV0@@Z @309
    ??4BufferedStream@@QAEAAV0@ABV0@@Z @310
    ??4CacheInfo@@QAEAAV0@ABV0@@Z @311
    ??4CacheTexture@@QAEAAV0@ABV0@@Z @312
    ??4CachedShape@@QAEAAV0@ABV0@@Z @313
    ??4CamDataInfo@@QAEAAV0@ABV0@@Z @314
    ??4Camera@@QAEAAV0@ABV0@@Z @315
    ??4ClassicScalingSystem@@QAEAAV0@ABV0@@Z @316
    ??4CmdStream@@QAEAAV0@ABV0@@Z @317
    ??4CollGroup@@QAEAAV0@ABV0@@Z @318
    ??4CollTriInfo@@QAEAAV0@ABV0@@Z @319
    ??4Colour@@QAEAAV0@ABV0@@Z @320
    ??4ComboBox@@QAEAAV0@ABV0@@Z @321
    ??4Controller@@QAEAAV0@ABV0@@Z @322
    ??4ControllerMgr@@QAEAAV0@ABV0@@Z @323
    ??4CoreNode@@QAEAAV0@ABV0@@Z @324
    ??4CullFrustum@@QAEAAV0@ABV0@@Z @325
    ??4CullingPlane@@QAEAAV0@ABV0@@Z @326
    ??4CurveSection@@QAEAAV0@ABV0@@Z @327
    ??4DataChunk@@QAEAAV0@ABV0@@Z @328
    ??4DispList@@QAEAAV0@ABV0@@Z @329
    ??4DlobjInfo@@QAEAAV0@ABV0@@Z @330
    ??4DrawInfo@@QAEAAV0@ABV0@@Z @331
    ??4DynCollObject@@QAEAAV0@ABV0@@Z @332
    ??4EditBox@@QAEAAV0@ABV0@@Z @333
    ??4EditNode@@QAEAAV0@ABV0@@Z @334
    ??4Envelope@@QAEAAV0@ABV0@@Z @335
    ??4FaceNode@@QAEAAV0@ABV0@@Z @336
    ??4FntobjInfo@@QAEAAV0@ABV0@@Z @337
    ??4Font@@QAEAAV0@ABV0@@Z @338
    ??4FontChar@@QAEAAV0@ABV0@@Z @339
    ??4GameApp@@QAEAAV0@ABV0@@Z @340
    ??4GfxInfo@@QAEAAV0@ABV0@@Z @341
    ??4GfxObject@@QAEAAV0@ABV0@@Z @342
    ??4GfxobjInfo@@QAEAAV0@ABV0@@Z @343
    ??4Graphics@@QAEAAV0@ABV0@@Z @344
    ??4HorzSplitBar@@QAEAAV0@ABV0@@Z @345
    ??4ID32@@QAEAAV0@ABV0@@Z @346
    ??4ID32@@QAEX_I@Z @347
    ??4InterpKeyInfo@@QAEAAV0@ABV0@@Z @348
    ??4Joint@@QAEAAV0@ABV0@@Z @349
    ??4KRect@@QAEAAV0@ABV0@@Z @350
    ??4KSegment@@QAEAAV0@ABV0@@Z @351
    ??4KTri@@QAEAAV0@ABV0@@Z @352
    ??4KnotPoint@@QAEAAV0@ABV0@@Z @353
    ??4LFInfo@@QAEAAV0@ABV0@@Z @354
    ??4LFlareGroup@@QAEAAV0@ABV0@@Z @355
    ??4Light@@QAEAAV0@ABV0@@Z @356
    ??4LightCamera@@QAEAAV0@ABV0@@Z @357
    ??4LightDataInfo@@QAEAAV0@ABV0@@Z @358
    ??4LightFlare@@QAEAAV0@ABV0@@Z @359
    ??4LightGroup@@QAEAAV0@ABV0@@Z @360
    ??4LinkedRoomInfo@@QAEAAV0@ABV0@@Z @361
    ??4LodInfo@@QAEAAV0@ABV0@@Z @362
    ??4MatPoly@Joint@@QAEAAV01@ABV01@@Z @363
    ??4Material@@QAEAAV0@ABV0@@Z @364
    ??4MaterialHandler@@QAEAAV0@ABV0@@Z @365
    ??4MatobjInfo@@QAEAAV0@ABV0@@Z @366
    ??4Matrix3f@@QAEAAV0@ABV0@@Z @367
    ??4Matrix4f@@QAEAAV0@ABV0@@Z @368
    ??4MemHead@@QAEAAV0@ABV0@@Z @369
    ??4MemInfoNode@@QAEAAV0@ABV0@@Z @370
    ??4Mesh@@QAEAAV0@ABV0@@Z @371
    ??4Module@@QAEAAV0@ABV0@@Z @372
    ??4ModuleMgr@@QAEAAV0@ABV0@@Z @373
    ??4MtxGroup@@QAEAAV0@ABV0@@Z @374
    ??4Node@@QAEAAV0@ABV0@@Z @375
    ??4NodeMgr@@QAEAAV0@ABV0@@Z @376
    ??4ObjCollInfo@@QAEAAV0@ABV0@@Z @377
    ??4ObjMgr@@QAEAAV0@ABV0@@Z @378
    ??4OptionBox@@QAEAAV0@ABV0@@Z @379
    ??4PVWAlphaAnimInfo@@QAEAAV0@ABV0@@Z @380
    ??4PVWAlphaShortAnimInfo@@QAEAAV0@ABV0@@Z @381
    ??4PVWColourAnimInfo@@QAEAAV0@ABV0@@Z @382
    ??4PVWColourShortAnimInfo@@QAEAAV0@ABV0@@Z @383
    ??4PVWCombiner@@QAEAAV0@ABV0@@Z @384
    ??4PVWKeyInfoF32@@QAEAAV0@ABV0@@Z @385
    ??4PVWKeyInfoS10@@QAEAAV0@ABV0@@Z @386
    ??4PVWKeyInfoU8@@QAEAAV0@ABV0@@Z @387
    ??4PVWLightingInfo@@QAEAAV0@ABV0@@Z @388
    ??4PVWPeInfo@@QAEAAV0@ABV0@@Z @389
    ??4PVWPolygonColourInfo@@QAEAAV0@ABV0@@Z @390
    ??4PVWTevColReg@@QAEAAV0@ABV0@@Z @391
    ??4PVWTevInfo@@QAEAAV0@ABV0@@Z @392
    ??4PVWTevStage@@QAEAAV0@ABV0@@Z @393
    ??4PVWTexAnimInfo@@QAEAAV0@ABV0@@Z @394
    ??4PVWTexGenData@@QAEAAV0@ABV0@@Z @395
    ??4PVWTextureData@@QAEAAV0@ABV0@@Z @396
    ??4PVWTextureInfo@@QAEAAV0@ABV0@@Z @397
    ??4Plane@@QAEAAV0@ABV0@@Z @398
    ??4Quat@@QAEAAV0@ABV0@@Z @399
    ??4RamStream@@QAEAAV0@ABV0@@Z @400
    ??4RandomAccessStream@@QAEAAV0@ABV0@@Z @401
    ??4RectArea@@QAEAAV0@ABV0@@Z @402
    ??4RenderWindow@@QAEAAV0@ABV0@@Z @403
    ??4RoomInfo@@QAEAAV0@ABV0@@Z @404
    ??4RouteGroup@@QAEAAV0@ABV0@@Z @405
    ??4RouteLink@@QAEAAV0@ABV0@@Z @406
    ??4RoutePoint@@QAEAAV0@ABV0@@Z @407
    ??4SRT@@QAEAAV0@ABV0@@Z @408
    ??4SRTNode@@QAEAAV0@ABV0@@Z @409
    ??4SceneData@@QAEAAV0@ABV0@@Z @410
    ??4Shape@@QAEAAV0@ABV0@@Z @411
    ??4ShapeDynMaterials@@QAEAAV0@ABV0@@Z @412
    ??4ShortColour@@QAEAAV0@ABV0@@Z @413
    ??4ShpobjInfo@@QAEAAV0@ABV0@@Z @414
    ??4SoftImageScalingSystem@@QAEAAV0@ABV0@@Z @415
    ??4SplitBar@@QAEAAV0@ABV0@@Z @416
    ??4StdSystem@@QAEAAV0@ABV0@@Z @417
    ??4Stream@@QAEAAV0@ABV0@@Z @418
    ??4String@@QAEAAV0@ABV0@@Z @419
    ??4System@@QAEAAV0@ABV0@@Z @420
    ??4TcpStream@@QAEAAV0@ABV0@@Z @421
    ??4TexAttr@@QAEAAV0@ABV0@@Z @422
    ??4TexCacheInfo@@QAEAAV0@ABV0@@Z @423
    ??4TexImg@@QAEAAV0@ABV0@@Z @424
    ??4TexobjInfo@@QAEAAV0@ABV0@@Z @425
    ??4Texture@@QAEAAV0@ABV0@@Z @426
    ??4TextureCacher@@QAEAAV0@ABV0@@Z @427
    ??4TimerInf@@QAEAAV0@ABV0@@Z @428
    ??4Timers@@QAEAAV0@ABV0@@Z @429
    ??4ToolWindow@@QAEAAV0@ABV0@@Z @430
    ??4UIFrame@@QAEAAV0@ABV0@@Z @431
    ??4UIMgr@@QAEAAV0@ABV0@@Z @432
    ??4UIWindow@@QAEAAV0@ABV0@@Z @433
    ??4Vector2f@@QAEAAV0@ABV0@@Z @434
    ??4Vector2i@@QAEAAV0@ABV0@@Z @435
    ??4Vector3f@@QAEAAV0@ABV0@@Z @436
    ??4VertSplitBar@@QAEAAV0@ABV0@@Z @437
    ??4VtxMatrix@@QAEAAV0@ABV0@@Z @438
    ??4WSocket@@QAEAAV0@ABV0@@Z @439
    ??8ID32@@QAE_N_I@Z @440
    ??9ID32@@QAE_N_I@Z @441
    ??RMatrix3f@@QAEAAMHH@Z @442
    ??RMatrix3f@@QBEABMHH@Z @443
    ??YMatrix3f@@QAEAAV0@ABV0@@Z @444
    ??_7ANode@@6B@ @445
    ??_7AgeServer@@6B@ @446
    ??_7AnimContext@@6B@ @447
    ??_7AnimData@@6B@ @448
    ??_7AnimDca@@6B@ @449
    ??_7AnimDck@@6B@ @450
    ??_7AnmobjInfo@@6B@ @451
    ??_7AppWindow@@6B@ @452
    ??_7AtxCommandStream@@6B@ @453
    ??_7AtxDirectRouter@@6B@ @454
    ??_7AtxFileStream@@6B@ @455
    ??_7AtxRouter@@6B@ @456
    ??_7AtxStream@@6B@ @457
    ??_7BaseApp@@6B@ @458
    ??_7BaseScalingSystem@@6B@ @459
    ??_7BaseShape@@6B@ @460
    ??_7BinobjInfo@@6B@ @461
    ??_7BufferedInputStream@@6B@ @462
    ??_7BufferedOutputStream@@6B@ @463
    ??_7BufferedStream@@6B@ @464
    ??_7CacheTexture@@6B@ @465
    ??_7ClassicScalingSystem@@6B@ @466
    ??_7ComboBox@@6B@ @467
    ??_7Controller@@6B@ @468
    ??_7ControllerMgr@@6B@ @469
    ??_7CoreNode@@6B@ @470
    ??_7DispList@@6B@ @471
    ??_7DlobjInfo@@6B@ @472
    ??_7DynCollObject@@6B@ @473
    ??_7EditBox@@6B@ @474
    ??_7EditNode@@6B@ @475
    ??_7FaceNode@@6B@ @476
    ??_7FntobjInfo@@6B@ @477
    ??_7GameApp@@6B@ @478
    ??_7GfxObject@@6B@ @479
    ??_7GfxobjInfo@@6B@ @480
    ??_7Graphics@@6B@ @481
    ??_7HorzSplitBar@@6B@ @482
    ??_7Joint@@6B@ @483
    ??_7LFlareGroup@@6B@ @484
    ??_7Light@@6B@ @485
    ??_7LightFlare@@6B@ @486
    ??_7LightGroup@@6B@ @487
    ??_7LinkedRoomInfo@@6B@ @488
    ??_7MatPoly@Joint@@6B@ @489
    ??_7Material@@6B@ @490
    ??_7MaterialHandler@@6B@ @491
    ??_7MatobjInfo@@6B@ @492
    ??_7MemInfoNode@@6B@ @493
    ??_7Mesh@@6B@ @494
    ??_7Node@@6B@ @495
    ??_7ObjCollInfo@@6B@ @496
    ??_7ObjMgr@@6B@ @497
    ??_7OptionBox@@6B@ @498
    ??_7RamStream@@6B@ @499
    ??_7RandomAccessStream@@6B@ @500
    ??_7RenderWindow@@6B@ @501
    ??_7RouteGroup@@6B@ @502
    ??_7RouteLink@@6B@ @503
    ??_7RoutePoint@@6B@ @504
    ??_7SRTNode@@6B@ @505
    ??_7SceneData@@6B@ @506
    ??_7Shape@@6B@ @507
    ??_7ShpobjInfo@@6B@ @508
    ??_7SoftImageScalingSystem@@6B@ @509
    ??_7SplitBar@@6B@ @510
    ??_7StdSystem@@6B@ @511
    ??_7Stream@@6B@ @512
    ??_7System@@6B@ @513
    ??_7TcpStream@@6B@ @514
    ??_7TexAttr@@6B@ @515
    ??_7TexImg@@6B@ @516
    ??_7TexobjInfo@@6B@ @517
    ??_7Texture@@6B@ @518
    ??_7ToolWindow@@6B@ @519
    ??_7UIFrame@@6B@ @520
    ??_7UIMgr@@6B@ @521
    ??_7UIWindow@@6B@ @522
    ??_7VertSplitBar@@6B@ @523
    ??_C@_00A@?$AA@ @524
    ??_C@_02GGFL@rp?$AA@ @525
    ??_C@_02JBAA@?$CFf?$AA@ @526
    ??_C@_02MECO@?$CFd?$AA@ @527
    ??_C@_04DEEH@mesh?$AA@ @528
    ??_C@_04FHBD@root?$AA@ @529
    ??_C@_04HKB@face?$AA@ @530
    ??_C@_04LLHI@size?$AA@ @531
    ??_C@_06BPEH@?$DMNode?$DO?$AA@ @532
    ??_C@_06BPNI@texImg?$AA@ @533
    ??_C@_07BADG@meminfo?$AA@ @534
    ??_C@_07CDBK@matpoly?$AA@ @535
    ??_C@_07ECM@texattr?$AA@ @536
    ??_C@_07EIOA@animDck?$AA@ @537
    ??_C@_07HKAJ@lfgroup?$AA@ @538
    ??_C@_08DKK@CoreNode?$AA@ @539
    ??_C@_08HBI@material?$AA@ @540
    ??_C@_09FIIL@?$DMSRTNode?$DO?$AA@ @541
    ??_C@_0M@FELG@displaylist?$AA@ @542
    ??_C@_0N@DEMH@?$DMController?$DO?$AA@ @543
    ??_FController@@QAEXXZ @544
    ??_FCoreNode@@QAEXXZ @545
    ??_FNode@@QAEXXZ @546
    ??_FSRTNode@@QAEXXZ @547
    ?Activate@StdSystem@@UAEX_N@Z @548
    ?Alloc@ModuleMgr@@QAEPAXPAD@Z @549
    ?CP@Vector3f@@QAEXAAV1@@Z @550
    ?CheckMinMaxDir@CullingPlane@@QAEXXZ @551
    ?Child@CoreNode@@QAEPAV1@XZ @552
    ?Child@CoreNode@@QAEXPAV1@@Z @553
    ?Colour@Material@@QAEAAV0@XZ @554
    ?DP@Vector3f@@QAEMAAV1@@Z @555
    ?Del@NodeMgr@@QAEXPAVNode@@@Z @556
    ?Direction@KSegment@@QAEAAVVector3f@@XZ @557
    ?Done@AgeServer@@QAEXXZ @558
    ?Edge0@KTri@@QAEAAVVector3f@@XZ @559
    ?Edge1@KTri@@QAEAAVVector3f@@XZ @560
    ?EndBitGroup@AgeServer@@QAEXXZ @561
    ?EndGroup@AgeServer@@QAEXXZ @562
    ?EndNode@AgeServer@@QAEXXZ @563
    ?EndOptionBox@AgeServer@@QAEXXZ @564
    ?EndSection@AgeServer@@QAEXXZ @565
    ?GetElement@Matrix3f@@QBEMHH@Z @566
    ?InitApp@BaseApp@@UAEXPAD@Z @567
    ?LineIsComment@CmdStream@@QAE_NXZ @568
    ?Load@Module@@QAEXPAD@Z @569
    ?Name@CoreNode@@QAEPADXZ @570
    ?NewBit@AgeServer@@QAEXPAD_I1@Z @571
    ?NewButton@AgeServer@@QAEXPADPAV?$IDelegate1@AAVAgeServer@@@@H@Z @572
    ?NewButton@AgeServer@@QAEXPADPAVIDelegate@@H@Z @573
    ?NewEditor@AgeServer@@QAEXPAD0H@Z @574
    ?NewEditor@AgeServer@@QAEXPAD0HHH@Z @575
    ?NewEditor@AgeServer@@QAEXPADPAFHHH@Z @576
    ?NewEditor@AgeServer@@QAEXPADPAHHHH@Z @577
    ?NewEditor@AgeServer@@QAEXPADPAMMMH@Z @578
    ?NewEditor@AgeServer@@QAEXPADPAVAyuImage@@_N@Z @579
    ?NewEditor@AgeServer@@QAEXPADPAVColour@@@Z @580
    ?NewLabel@AgeServer@@QAEXPAD@Z @581
    ?NewNode@AgeServer@@QAEXPADPAVANode@@@Z @582
    ?NewNodeWindow@AgeServer@@QAEXPAD@Z @583
    ?NewOption@AgeServer@@QAEXPADH@Z @584
    ?NewPropWindow@AgeServer@@QAEXPAD_I@Z @585
    ?NewViewer@AgeServer@@QAEXPADPAH@Z @586
    ?NewViewer@AgeServer@@QAEXPADPAM@Z @587
    ?Next@CoreNode@@QAEPAV1@XZ @588
    ?Next@CoreNode@@QAEXPAV1@@Z @589
    ?Open@AgeServer@@QAE_NXZ @590
    ?Origin@KSegment@@QAEAAVVector3f@@XZ @591
    ?Origin@KTri@@QAEAAVVector3f@@XZ @592
    ?Parent@CoreNode@@QAEPAV1@XZ @593
    ?RefreshNode@AgeServer@@QAEXXZ @594
    ?RefreshSection@AgeServer@@QAEXXZ @595
    ?RegisterGenWindowClass@UIMgr@@QAEXPADPAX_N@Z @596
    ?SetElement@Matrix3f@@QAEAAV1@HHM@Z @597
    ?Shutdown@StdSystem@@QAEXXZ @598
    ?StartBitGroup@AgeServer@@QAEXPADPA_EH@Z @599
    ?StartBitGroup@AgeServer@@QAEXPADPA_IH@Z @600
    ?StartGroup@AgeServer@@QAEXPAD@Z @601
    ?StartOptionBox@AgeServer@@QAEXPADPAHH@Z @602
    ?StartOptionBox@AgeServer@@QAEXPADPA_EH@Z @603
    ?StartOptionBox@AgeServer@@QAEXPADPA_GH@Z @604
    ?StartSection@AgeServer@@QAEXPAD_N@Z @605
    ?UnLoad@ModuleMgr@@QAEXPAVModule@@@Z @606
    ?_start@Timers@@QAEXPAD_N@Z @607
    ?_stop@Timers@@QAEXPAD@Z @608
    ?activate@UIWindow@@UAEXXZ @609
    ?activateWindow@UIMgr@@QAEXPAUHWND__@@PAVUIWindow@@@Z @610
    ?add2@Vector3f@@QAEXAAV1@0@Z @611
    ?add@Colour@@QAEXAAV1@@Z @612
    ?add@CoreNode@@QAEXPAV1@@Z @613
    ?add@Vector3f@@QAEXAAV1@0@Z @614
    ?add@Vector3f@@QAEXAAV1@@Z @615
    ?add@Vector3f@@QAEXMMM@Z @616
    ?addAnimation@StdSystem@@QAEXPAVAnimData@@PAD@Z @617
    ?addChar@BufferedOutputStream@@QAEXD@Z @618
    ?addData@DataChunk@@QAEXM@Z @619
    ?addGfxObject@StdSystem@@QAEXPAVGfxobjInfo@@@Z @620
    ?addLFlare@LFlareGroup@@QAEXAAVColour@@AAVVector3f@@AAVVector2f@@PAV4@3@Z @621
    ?addLight@Graphics@@QAEXPAVLight@@@Z @622
    ?addLight@LightGroup@@QAEXAAVVector3f@@M@Z @623
    ?addOption@ComboBox@@QAEXPAD_N@Z @624
    ?addTexture@StdSystem@@QAEXPAVTexture@@PAD@Z @625
    ?additionalPlanes@CullFrustum@@QAEXPAV1@@Z @626
    ?adjust@DynCollObject@@UAEXPAVCreature@@@Z @627
    ?ageAddFlare@LightGroup@@QAEXAAVAgeServer@@@Z @628
    ?ageAnyAnimations@StdSystem@@QAEXAAVAgeServer@@PAD@Z @629
    ?ageChangeID@ID32@@QAEXXZ @630
    ?ageChangePlatname@ObjCollInfo@@QAEXAAVAgeServer@@@Z @631
    ?ageChangeTexture@LightGroup@@QAEXAAVAgeServer@@@Z @632
    ?ageDel@LightFlare@@QAEXAAVAgeServer@@@Z @633
    ?ageDel@LightGroup@@QAEXAAVAgeServer@@@Z @634
    ?ageDelCollInfo@ObjCollInfo@@QAEXAAVAgeServer@@@Z @635
    ?amountFree@AyuCache@@QAE_IXZ @636
    ?angDist@@YAMMM@Z @637
    ?animate@AnimContext@@UAEXM@Z @638
    ?animate@PVWPolygonColourInfo@@QAEXPAMAAVColour@@@Z @639
    ?animate@PVWTevColReg@@QAEXPAMAAVShortColour@@@Z @640
    ?animate@PVWTextureData@@QAEXPAMAAVMatrix4f@@@Z @641
    ?animate@ShapeDynMaterials@@QAEXPAM@Z @642
    ?applyVelocity@DynCollObject@@UAEXAAVPlane@@AAVVector3f@@1@Z @643
    ?attach@DlobjInfo@@UAEXXZ @644
    ?attach@GfxObject@@UAEXXZ @645
    ?attach@GfxobjInfo@@UAEXXZ @646
    ?attach@Material@@UAEXXZ @647
    ?attach@MatobjInfo@@UAEXXZ @648
    ?attach@TexobjInfo@@UAEXXZ @649
    ?attach@Texture@@UAEXXZ @650
    ?attachObjs@StdSystem@@QAEXXZ @651
    ?backupAnimOverrides@BaseShape@@QAEXPAPAVAnimContext@@@Z @652
    ?beginRender@System@@QAEXXZ @653
    ?behindEdge@CollTriInfo@@QAEHAAVVector3f@@@Z @654
    ?blah@ClassicScalingSystem@@UAEXXZ @655
    ?blah@SoftImageScalingSystem@@UAEXXZ @656
    ?blend@Matrix4f@@QAEXAAV1@M@Z @657
    ?bounce@Vector3f@@QAEXAAV1@M@Z @658
    ?bounceVector@Plane@@QAEXAAVVector3f@@M@Z @659
    ?buildModeList@System@@QAEXXZ @660
    ?cacheFrameSpace@AnimFrameCacher@@QAEXHPAVAnimCacheInfo@@@Z @661
    ?cacheFree@AyuCache@@QAEXPAX@Z @662
    ?cacheShape@Graphics@@QAEXPAVBaseShape@@PAVShapeDynMaterials@@@Z @663
    ?cacheTexture@TextureCacher@@QAEXPAVCacheTexture@@@Z @664
    ?calcBasePose@BaseShape@@QAEXAAVMatrix4f@@@Z @665
    ?calcBoxLighting@Graphics@@QAEHAAVBoundBox@@@Z @666
    ?calcClientFromFrame@UIFrame@@QAEXAAVRectArea@@@Z @667
    ?calcDataSize@TexImg@@SAHHHH@Z @668
    ?calcFrameFromClient@UIFrame@@QAEXAAVRectArea@@@Z @669
    ?calcHash@String@@QAE_IXZ @670
    ?calcHash@String@@SA_IPAD@Z @671
    ?calcJointWorldDir@BaseShape@@QAEXAAVGraphics@@HAAVVector3f@@@Z @672
    ?calcJointWorldPos@BaseShape@@QAEMAAVGraphics@@HAAVVector3f@@@Z @673
    ?calcJointWorldScale@BaseShape@@QAEXAAVGraphics@@HAAVVector3f@@@Z @674
    ?calcLightMapRadius@Light@@QAEMXZ @675
    ?calcLightObjRadius@Light@@QAEMXZ @676
    ?calcLightSizes@Light@@QAEXXZ @677
    ?calcLighting@Graphics@@QAEHM@Z @678
    ?calcLookAt@CullFrustum@@QAEXAAVVector3f@@0PAV2@@Z @679
    ?calcLookFrom@CullFrustum@@QAEXAAVVector3f@@0@Z @680
    ?calcProjection@LightCamera@@QAEXAAVGraphics@@_NPAVNode@@@Z @681
    ?calcRadScale@Plane@@QAEMXZ @682
    ?calcSphereLighting@Graphics@@QAEHAAVVector3f@@M@Z @683
    ?calcVectors@CullFrustum@@QAEXAAVVector3f@@0@Z @684
    ?calcWeightedMatrices@BaseShape@@QAEXXZ @685
    ?camReflect@Camera@@QAEXAAV1@AAVPlane@@@Z @686
    ?charToIndex@Font@@QAEHD@Z @687
    ?charToIndex@Font@@QAEH_G@Z @688
    ?checkCommands@AtxCommandStream@@QAEHXZ @689
    ?checkForConnections@WSocket@@QAE_NXZ @690
    ?checkMask@AnimData@@QAEXXZ @691
    ?checkMouseEvent@BaseShape@@UAEXHHHHHH@Z @692
    ?checkOverflow@AyuStack@@QAE_NXZ @693
    ?checkStack@AyuStack@@QAEXXZ @694
    ?clearFlag@Node@@QAEXH@Z @695
    ?clearRender@RenderWindow@@QAEXXZ @696
    ?close@AgeServer@@UAEXXZ @697
    ?close@AtxFileStream@@UAEXXZ @698
    ?close@AtxStream@@UAEXXZ @699
    ?close@BufferedInputStream@@UAEXXZ @700
    ?close@BufferedStream@@UAEXXZ @701
    ?close@Stream@@UAEXXZ @702
    ?close@TcpStream@@UAEXXZ @703
    ?close@WSocket@@QAEXXZ @704
    ?closeAll@AtxDirectRouter@@UAEXXZ @705
    ?closeAll@AtxRouter@@UAEXXZ @706
    ?closeChildren@UIWindow@@QAEXXZ @707
    ?closeRoute@AtxDirectRouter@@UAEXPAVAtxStream@@@Z @708
    ?closing@TcpStream@@UAE_NXZ @709
    ?closing@WSocket@@QAEHXZ @710
    ?compileMaterial@Graphics@@UAE_IPAVMaterial@@@Z @711
    ?concat@Node@@UAEXAAVMatrix4f@@@Z @712
    ?concat@Node@@UAEXAAVSRT@@@Z @713
    ?concat@Node@@UAEXAAVVQS@@@Z @714
    ?concat@Node@@UAEXXZ @715
    ?concat@SRTNode@@UAEXAAVMatrix4f@@@Z @716
    ?concat@SRTNode@@UAEXXZ @717
    ?concat@String@@SAXPAD0@Z @718
    ?connect@TcpStream@@QAE_NPADH@Z @719
    ?connect@WSocket@@QAEXXZ @720
    ?contains@String@@QAE_NPAD@Z @721
    ?contains@String@@SA_NPAD0@Z @722
    ?contains@String@@SA_NPADD@Z @723
    ?convFormat@TexImg@@QAE_I_I@Z @724
    ?copy@Plane@@QAEXAAV1@@Z @725
    ?copy@String@@SAPADPAD0@Z @726
    ?copyCacheToRam@StdSystem@@UAEX_I00@Z @727
    ?copyCacheToTexture@StdSystem@@UAEXPAVCacheTexture@@@Z @728
    ?copyInv@Plane@@QAEXAAV1@@Z @729
    ?copyRamToCache@StdSystem@@UAE_I_I00@Z @730
    ?copyToToken@CmdStream@@QAEXH@Z @731
    ?copyUntil@String@@SA_NPAD0DPAPAD@Z @732
    ?copyWaitUntilDone@StdSystem@@UAEXXZ @733
    ?countMaterials@BaseShape@@QAEXPAVJoint@@_I@Z @734
    ?create@AyuStack@@QAEXPADHPAXH_N@Z @735
    ?create@WSocket@@QAE_NPADH@Z @736
    ?createBuffer@Texture@@QAEXHHHPAX@Z @737
    ?createCollData@GfxInfo@@QAEXPAVVector3f@@M@Z @738
    ?createCollisions@BaseShape@@QAEXH@Z @739
    ?createDebugStream@System@@QAEPAVUIWindow@@PAV2@@Z @740
    ?createFile@System@@QAEPAVRandomAccessStream@@PAD_N@Z @741
    ?createInvVecs@CullFrustum@@QAEXXZ @742
    ?createVecs@CullFrustum@@QAEXXZ @743
    ?createViewPlanes@CullFrustum@@QAEXXZ @744
    ?createWindow@ComboBox@@UAEXPAD0PAUHMENU__@@@Z @745
    ?createWindow@RenderWindow@@UAEXPAD0PAUHMENU__@@@Z @746
    ?createWindow@ToolWindow@@UAEXPAD0PAUHMENU__@@@Z @747
    ?createWindow@UIWindow@@UAEXPAD0PAUHMENU__@@@Z @748
    ?cross@Vector3f@@QAEXAAV1@0@Z @749
    ?currID@Node@@2HA @750
    ?decodeData@Texture@@QAEXPAVTexImg@@@Z @751
    ?decodeS3TC@Texture@@SAXHHPA_E0@Z @752
    ?del@CoreNode@@QAEXXZ @753
    ?delAnim@AnimData@@QAEXAAVAgeServer@@@Z @754
    ?deleteIdAll@AyuCache@@QAEX_I@Z @755
    ?detach@AnimData@@UAEXXZ @756
    ?detach@AnmobjInfo@@UAEXXZ @757
    ?detach@DlobjInfo@@UAEXXZ @758
    ?detach@GfxObject@@UAEXXZ @759
    ?detach@GfxobjInfo@@UAEXXZ @760
    ?detach@MatobjInfo@@UAEXXZ @761
    ?detach@TexobjInfo@@UAEXXZ @762
    ?detach@Texture@@UAEXXZ @763
    ?detachObjs@StdSystem@@QAEXXZ @764
    ?dist@Plane@@QAEMAAVVector3f@@@Z @765
    ?distance@Vector3f@@QAEMAAV1@@Z @766
    ?distanceTriRect@@YAMAAVKTri@@AAVKRect@@PAM222@Z @767
    ?div@Vector3f@@QAEXM@Z @768
    ?doInitApp@GameApp@@QAEXXZ @769
    ?dockTop@UIWindow@@UAEXHAAVRectArea@@0@Z @770
    ?doneRender@System@@QAEXXZ @771
    ?dot@Vector3f@@QAEMAAV1@@Z @772
    ?draw@BoundBox@@QAEXAAVGraphics@@@Z @773
    ?draw@CullFrustum@@QAEXAAVGraphics@@@Z @774
    ?draw@Node@@UAEXAAVGraphics@@@Z @775
    ?draw@Timers@@QAEXAAVGraphics@@PAVFont@@@Z @776
    ?drawCircle@Graphics@@QAEXAAVVector3f@@MAAVMatrix4f@@@Z @777
    ?drawCylinder@Graphics@@QAEXAAVVector3f@@0MAAVMatrix4f@@@Z @778
    ?drawSphere@Graphics@@QAEXAAVVector3f@@MAAVMatrix4f@@@Z @779
    ?drawculled@BaseShape@@QAEXAAVGraphics@@AAVCamera@@PAVShapeDynMaterials@@@Z @780
    ?drawlights@BaseShape@@QAEXAAVGraphics@@AAVCamera@@@Z @781
    ?drawobjcolls@BaseShape@@QAEXAAVGraphics@@AAVCamera@@@Z @782
    ?drawroutes@BaseShape@@QAEXAAVGraphics@@AAVCamera@@@Z @783
    ?drawshape@BaseShape@@QAEXAAVGraphics@@AAVCamera@@PAVShapeDynMaterials@@@Z @784
    ?dumpBti@TexImg@@QAEXPAVTexture@@PADAAVRandomAccessStream@@2@Z @785
    ?dup@String@@QAEPADXZ @786
    ?dup@String@@SAPADPAD@Z @787
    ?endLoading@StdSystem@@UAEXXZ @788
    ?endOfCmds@CmdStream@@QAE_NXZ @789
    ?endOfSection@CmdStream@@QAE_NXZ @790
    ?entryHandler@ComboBox@@UAEXPAD@Z @791
    ?entryHandler@EditBox@@UAEXPAD@Z @792
    ?equal@Plane@@QAE_NAAV1@@Z @793
    ?equals@String@@SA_NPAD0@Z @794
    ?errCon@@3PAVStream@@A @795
    ?evaluateAt@CurveSection@@QAEXHM@Z @796
    ?expandBound@BoundBox@@QAEXAAV1@@Z @797
    ?expandBound@BoundBox@@QAEXAAVVector3f@@@Z @798
    ?exportData@DispList@@QAEXAAVRandomAccessStream@@_I@Z @799
    ?exportData@Mesh@@QAEXAAVRandomAccessStream@@@Z @800
    ?exportData@MtxGroup@@QAEXAAVRandomAccessStream@@_I@Z @801
    ?exportIni@BaseShape@@QAEXAAVRandomAccessStream@@_N@Z @802
    ?extract@PVWAlphaAnimInfo@@QAEXMAAVColour@@@Z @803
    ?extract@PVWAlphaShortAnimInfo@@QAEXMAAVShortColour@@@Z @804
    ?extract@PVWColourAnimInfo@@QAEXMAAVColour@@@Z @805
    ?extract@PVWColourShortAnimInfo@@QAEXMAAVShortColour@@@Z @806
    ?extract@PVWTexAnimInfo@@QAEXMAAVVector3f@@@Z @807
    ?extractSRT@AnimData@@UAEXAAVSRT@@HPAVAnimDataInfo@@M@Z @808
    ?extractSRT@AnimDck@@UAEXAAVSRT@@HPAVAnimDataInfo@@M@Z @809
    ?fillBuffer@BufferedInputStream@@QAEXXZ @810
    ?fillBuffer@CmdStream@@QAEX_N@Z @811
    ?findAnimation@StdSystem@@QAEPAVAnimData@@PAD@Z @812
    ?findAnyAnimation@StdSystem@@QAEPAVAnimData@@PAD@Z @813
    ?findAnyGfxObject@StdSystem@@QAEPAVGfxobjInfo@@PAD_I@Z @814
    ?findAnyIndex@StdSystem@@QAEHPAD0@Z @815
    ?findCollTri@BaseShape@@QAEPAVCollTriInfo@@AAVVector3f@@00PAD@Z @816
    ?findGfxObject@StdSystem@@QAEPAVGfxobjInfo@@PAD_I@Z @817
    ?findIndexAnimation@StdSystem@@QAEPAVAnimData@@PADH@Z @818
    ?findModule@ModuleMgr@@QAEPAVModule@@PAD@Z @819
    ?findNode@NodeMgr@@QAEPAVCoreNode@@PADPAV2@@Z @820
    ?findTexture@StdSystem@@QAEPAVGfxobjInfo@@PAVTexture@@@Z @821
    ?firstApp@System@@QAEPAVBaseApp@@XZ @822
    ?firstNode@NodeMgr@@QAEPAVCoreNode@@XZ @823
    ?flush@AtxStream@@UAEXXZ @824
    ?flush@BufferedOutputStream@@UAEXXZ @825
    ?flush@Stream@@UAEXXZ @826
    ?flush@TcpStream@@UAEXXZ @827
    ?flushCachedShapes@Graphics@@QAEXXZ @828
    ?flushLFlares@StdSystem@@QAEXAAVGraphics@@@Z @829
    ?flushWrite@WSocket@@QAEXXZ @830
    ?formatName@TexImg@@QAEPAD_I@Z @831
    ?frictionVector@Plane@@QAEXAAVVector3f@@M@Z @832
    ?fromEuler@Quat@@QAEXAAVVector3f@@@Z @833
    ?fromMat3f@Quat@@QAEXAAVMatrix3f@@@Z @834
    ?genAge@ANode@@UAEXAAVAgeServer@@@Z @835
    ?genAge@AnimData@@UAEXAAVAgeServer@@@Z @836
    ?genAge@BaseApp@@UAEXAAVAgeServer@@@Z @837
    ?genAge@Colour@@QAEXAAVAgeServer@@PAD@Z @838
    ?genAge@CoreNode@@UAEXAAVAgeServer@@@Z @839
    ?genAge@Graphics@@UAEXAAVAgeServer@@@Z @840
    ?genAge@ID32@@QAEXAAVAgeServer@@PAD@Z @841
    ?genAge@Joint@@UAEXAAVAgeServer@@@Z @842
    ?genAge@Light@@UAEXAAVAgeServer@@@Z @843
    ?genAge@LightCamera@@QAEXAAVAgeServer@@@Z @844
    ?genAge@LightFlare@@UAEXAAVAgeServer@@@Z @845
    ?genAge@LightGroup@@UAEXAAVAgeServer@@@Z @846
    ?genAge@Material@@UAEXAAVAgeServer@@@Z @847
    ?genAge@ObjCollInfo@@UAEXAAVAgeServer@@@Z @848
    ?genAge@RoutePoint@@UAEXAAVAgeServer@@@Z @849
    ?genAge@SRTNode@@UAEXAAVAgeServer@@@Z @850
    ?genAge@SceneData@@UAEXAAVAgeServer@@@Z @851
    ?genAge@StdSystem@@QAEXAAVAgeServer@@@Z @852
    ?genAge@System@@QAEXAAVAgeServer@@@Z @853
    ?genAge@Vector3f@@QAEXAAVAgeServer@@PADAAV1@2@Z @854
    ?genAgeNode@ANode@@UAEXAAVAgeServer@@@Z @855
    ?genAgeNode@CoreNode@@UAEXAAVAgeServer@@@Z @856
    ?genCurve@CurveSection@@QAEXH@Z @857
    ?genRead@CoreNode@@QAEXAAVAgeServer@@@Z @858
    ?genVectorX@Quat@@QAEXAAVVector3f@@@Z @859
    ?genVectorY@Quat@@QAEXAAVVector3f@@@Z @860
    ?genVectorZ@Quat@@QAEXAAVVector3f@@@Z @861
    ?genWrite@CoreNode@@QAEXAAVAgeServer@@@Z @862
    ?getAgeNodeType@ANode@@UAEHXZ @863
    ?getAgeNodeType@CoreNode@@UAEHXZ @864
    ?getAlpha@Texture@@QAE_EHH@Z @865
    ?getAnimInfo@AnimDca@@QAEXPAVCmdStream@@@Z @866
    ?getAnimInfo@AnimDck@@QAEXPAVCmdStream@@@Z @867
    ?getAnimInfo@SceneData@@QAEXPAVCmdStream@@@Z @868
    ?getAnimMatrix@BaseShape@@QAEAAVMatrix4f@@H@Z @869
    ?getAppMemory@StdSystem@@QAEXPAD@Z @870
    ?getAtxRouter@System@@QAEPAVAtxRouter@@XZ @871
    ?getAvailable@Stream@@UAEHXZ @872
    ?getAvailable@TcpStream@@UAEHXZ @873
    ?getCentreSize@ObjCollInfo@@QAEXAAVVector3f@@AAM@Z @874
    ?getChildCount@CoreNode@@QAEHXZ @875
    ?getClosing@Stream@@UAE_NXZ @876
    ?getCollTris@BaseShape@@QAEPAVCollGroup@@AAVVector3f@@@Z @877
    ?getColour@Material@@QAEXAAVColour@@@Z @878
    ?getColumn@Matrix4f@@QAEXHAAVVector3f@@@Z @879
    ?getDListPtr@Graphics@@UAEPA_EXZ @880
    ?getDListRemainSize@Graphics@@UAE_IXZ @881
    ?getData@DataChunk@@QAEXPAVCmdStream@@@Z @882
    ?getFade@StdSystem@@QAEMXZ @883
    ?getFlag@Node@@QAE_NH@Z @884
    ?getFlags@Node@@QAEHXZ @885
    ?getFrameCount@System@@QAE_HXZ @886
    ?getFrameRate@System@@QAEMXZ @887
    ?getFrameTime@System@@QAEMXZ @888
    ?getFree@AyuStack@@QAEHXZ @889
    ?getHalfRand@StdSystem@@QAEMM@Z @890
    ?getHeap@StdSystem@@QAEPAVAyuHeap@@H@Z @891
    ?getHeapNum@StdSystem@@QAEHXZ @892
    ?getIndex@AyuCache@@QAEHXZ @893
    ?getLFlareInfo@StdSystem@@QAEPAVLFInfo@@XZ @894
    ?getLength@AtxFileStream@@UAEHXZ @895
    ?getLength@BufferedStream@@UAEHXZ @896
    ?getLength@RamStream@@UAEHXZ @897
    ?getLength@RandomAccessStream@@UAEHXZ @898
    ?getLength@String@@QAEHXZ @899
    ?getLength@String@@SAHPAD@Z @900
    ?getMainStickX@Controller@@QAEMXZ @901
    ?getMainStickY@Controller@@QAEMXZ @902
    ?getMatrices@Graphics@@QAEPAVMatrix4f@@H@Z @903
    ?getMaxFree@AyuStack@@QAEHXZ @904
    ?getModelMatrix@Node@@UAEPAVMatrix4f@@XZ @905
    ?getModelMatrix@SRTNode@@UAEPAVMatrix4f@@XZ @906
    ?getName@CoreNode@@QAEPADXZ @907
    ?getOpenFilename@@YAPADPAUHWND__@@PAD@Z @908
    ?getOpenFilename@AgeServer@@QAE_NAAVString@@PAD@Z @909
    ?getPending@AtxFileStream@@UAEHXZ @910
    ?getPending@AtxStream@@UAEHXZ @911
    ?getPending@BufferedInputStream@@UAEHXZ @912
    ?getPending@BufferedStream@@UAEHXZ @913
    ?getPending@RamStream@@UAEHXZ @914
    ?getPending@RandomAccessStream@@UAEHXZ @915
    ?getPending@Stream@@UAEHXZ @916
    ?getPending@TcpStream@@UAEHXZ @917
    ?getPosition@AtxFileStream@@UAEHXZ @918
    ?getPosition@BufferedInputStream@@UAEHXZ @919
    ?getPosition@BufferedStream@@UAEHXZ @920
    ?getPosition@RamStream@@UAEHXZ @921
    ?getPosition@RandomAccessStream@@UAEHXZ @922
    ?getPosition@SRTNode@@QAEAAVVector3f@@XZ @923
    ?getRand@StdSystem@@QAEMM@Z @924
    ?getRed@Texture@@QAE_EHH@Z @925
    ?getRotation@SRTNode@@QAEAAVVector3f@@XZ @926
    ?getRow@Matrix4f@@QAEXHAAVVector3f@@@Z @927
    ?getSaveFilename@@YAPADPAUHWND__@@PAD1@Z @928
    ?getSaveFilename@AgeServer@@QAE_NAAVString@@PAD@Z @929
    ?getScale@SRTNode@@QAEAAVVector3f@@XZ @930
    ?getShape@DynCollObject@@UAEPAVShape@@XZ @931
    ?getShape@StdSystem@@QAEPAVShape@@PAD00_N@Z @932
    ?getSize@AyuStack@@QAEHXZ @933
    ?getSubStickX@Controller@@QAEMXZ @934
    ?getSubStickY@Controller@@QAEMXZ @935
    ?getTileSize@TexImg@@SAXHAA_I0@Z @936
    ?getTime@System@@QAEMXZ @937
    ?getToken@CmdStream@@QAEPAD_N@Z @938
    ?getTopUsed@AyuStack@@QAEHXZ @939
    ?getType@Node@@QAEHXZ @940
    ?getUsed@AyuStack@@QAEHXZ @941
    ?getVerticalFilter@Graphics@@UAEXPA_E@Z @942
    ?getWorldPosition@SRTNode@@QAEAAVVector3f@@XZ @943
    ?glnHeight@@3HA @944
    ?glnWidth@@3HA @945
    ?grabBuffer@Texture@@QAEXHH_N0@Z @946
    ?gsys@@3PAVSystem@@A @947
    ?hGLRC@RenderWindow@@2PAUHGLRC__@@A @948
    ?halt@System@@SAXPADH0@Z @949
    ?handleClick@SplitBar@@QAEXHH@Z @950
    ?handlePopupMenu@@YGXPAUHWND__@@PAHUtagPOINT@@PAUHMENU__@@@Z @951
    ?handleRelease@SplitBar@@QAEXHH@Z @952
    ?hardReset@System@@QAEXXZ @953
    ?height@RectArea@@QAEHXZ @954
    ?ident@Matrix4f@@2V1@A @955
    ?identity@Matrix3f@@QAEXXZ @956
    ?idle@BaseApp@@UAEHXZ @957
    ?idle@GameApp@@UAEHXZ @958
    ?idleupdate@BaseApp@@QAEHXZ @959
    ?importBti@TexImg@@QAEXPAVTexture@@AAVRandomAccessStream@@PA_E@Z @960
    ?importDca@BaseShape@@QAEXPADPAVCmdStream@@@Z @961
    ?importDck@BaseShape@@QAEPAVAnimData@@PADPAVCmdStream@@@Z @962
    ?importIni@BaseShape@@QAEXAAVRandomAccessStream@@@Z @963
    ?importTxe@TexImg@@QAEXPAVTexture@@AAVRandomAccessStream@@@Z @964
    ?inTriClampTo@CollTriInfo@@QAE_NAAVVector3f@@@Z @965
    ?inactivate@AyuStack@@QAEXXZ @966
    ?init@AtxStream@@QAEXXZ @967
    ?init@AyuCache@@QAEX_I0@Z @968
    ?init@AyuHeap@@QAEXPADHPAXH@Z @969
    ?init@BufferedInputStream@@QAEXPAVStream@@PA_EH@Z @970
    ?init@BufferedStream@@QAEXPAVRandomAccessStream@@H@Z @971
    ?init@CmdStream@@QAEXPAVStream@@@Z @972
    ?init@CollTriInfo@@QAEXPAVRoomInfo@@PAVVector3f@@@Z @973
    ?init@Node@@QAEXPAD@Z @974
    ?init@String@@QAEXH@Z @975
    ?init@String@@QAEXPAD@Z @976
    ?init@String@@QAEXPADH@Z @977
    ?init@WSocket@@SAXXZ @978
    ?initCore@CoreNode@@QAEXPAD@Z @979
    ?initData@AnimCacheInfo@@QAEXXZ @980
    ?initData@AnimData@@QAEXXZ @981
    ?initData@TexCacheInfo@@QAEXXZ @982
    ?initFrame@UIWindow@@QAEXPAV1@HHH_N@Z @983
    ?initImage@TexAttr@@QAEXXZ @984
    ?initIni@BaseShape@@QAEX_N@Z @985
    ?initLFlares@StdSystem@@QAEXH@Z @986
    ?initLightmap@LightCamera@@QAEXHH@Z @987
    ?initOpenGL@RenderWindow@@QAEXXZ @988
    ?initRender@Graphics@@UAEXHH@Z @989
    ?initSoftReset@StdSystem@@UAEXXZ @990
    ?initTools@ToolWindow@@QAEXPAUHINSTANCE__@@HPAU_TBBUTTON@@PAUtagTBADDBITMAP@@@Z @991
    ?initialise@BaseShape@@QAEXXZ @992
    ?initialise@Controller@@QAEX_I@Z @993
    ?input@Vector3f@@QAEXAAV1@@Z @994
    ?insertAfter@CacheInfo@@QAEXPAV1@@Z @995
    ?insertAfter@CachedShape@@QAEXPAV1@@Z @996
    ?insertAfter@GfxobjInfo@@QAEXPAV1@@Z @997
    ?inside@KRect@@QAE_NAAVVector3f@@@Z @998
    ?instanceMaterials@BaseShape@@QAEPAVShapeDynMaterials@@H@Z @999
    ?intersects@BoundBox@@QAE_NAAV1@@Z @1000
    ?invalidateObjs@StdSystem@@QAEX_I0@Z @1001
    ?inverse@Matrix4f@@QAEXPAV1@@Z @1002
    ?isActive@StdSystem@@QAE_NXZ @1003
    ?isActive@UIMgr@@QAE_NXZ @1004
    ?isBoundVisible@CullFrustum@@QAEHAAVBoundBox@@H@Z @1005
    ?isConnected@AtxDirectRouter@@UAE_NXZ @1006
    ?isConnected@AtxRouter@@UAE_NXZ @1007
    ?isEmpty@AyuCache@@QAE_NXZ @1008
    ?isPointVisible@CullFrustum@@QAE_NAAVVector3f@@M@Z @1009
    ?isSame@PVWKeyInfoS10@@QAE_NAAV1@@Z @1010
    ?isSame@PVWTevColReg@@QAE_NAAV1@@Z @1011
    ?isSame@PVWTevInfo@@QAE_NAAV1@@Z @1012
    ?isSame@String@@QAE_NPAD@Z @1013
    ?isSame@String@@QAE_NPAV1@@Z @1014
    ?isSame@String@@SA_NPAD0@Z @1015
    ?isSame@Vector3f@@QAE_NAAV1@@Z @1016
    ?isShutdown@StdSystem@@QAE_NXZ @1017
    ?isToken@CmdStream@@QAE_NPAD@Z @1018
    ?isWhiteSpace@String@@SA_ND@Z @1019
    ?keyClick@Controller@@QAE_N_I@Z @1020
    ?keyDoubleClick@Controller@@QAE_N_I@Z @1021
    ?keyDown@BaseApp@@UAE_NHHH@Z @1022
    ?keyDown@Controller@@QAE_N_I@Z @1023
    ?keyDown@ControllerMgr@@UAE_NH@Z @1024
    ?keyUnClick@Controller@@QAE_N_I@Z @1025
    ?keyUp@Controller@@QAE_N_I@Z @1026
    ?largestBlockFree@AyuCache@@QAE_IXZ @1027
    ?length@Vector3f@@QAEMXZ @1028
    ?lerp@Colour@@QAEXAAV1@M@Z @1029
    ?lerpTo@Colour@@QAEXAAV1@M0@Z @1030
    ?lerpTo@Vector3f@@QAEXAAV1@M0@Z @1031
    ?listModules@ModuleMgr@@QAEXXZ @1032
    ?load@CoreNode@@QAEXPAD0_I@Z @1033
    ?loadAnimation@BaseShape@@QAEPAVAnimData@@PAD_N@Z @1034
    ?loadAnimation@StdSystem@@QAEPAVAnimData@@PAVShape@@PAD_N@Z @1035
    ?loadBundle@StdSystem@@QAEXPAD_N@Z @1036
    ?loadDca@BaseShape@@QAEPAVAnimData@@PADAAVRandomAccessStream@@@Z @1037
    ?loadDck@BaseShape@@QAEPAVAnimData@@PADAAVRandomAccessStream@@@Z @1038
    ?loadModule@ModuleMgr@@QAEPAVModule@@PAD@Z @1039
    ?loadShape@StdSystem@@QAEPAVShape@@PAD_N@Z @1040
    ?loadTexture@StdSystem@@QAEPAVTexture@@PAD_N@Z @1041
    ?loadini@LightFlare@@QAEXPAVCmdStream@@@Z @1042
    ?loadini@LightGroup@@QAEXPAVCmdStream@@@Z @1043
    ?loadini@ObjCollInfo@@QAEXPAVCmdStream@@@Z @1044
    ?loadini@RouteGroup@@QAEXPAVCmdStream@@@Z @1045
    ?loadini@RoutePoint@@QAEXPAVCmdStream@@@Z @1046
    ?lock@AtxDirectRouter@@UAEXXZ @1047
    ?lock@AtxRouter@@UAEXXZ @1048
    ?lookDir@Camera@@QAEXAAVVector3f@@@Z @1049
    ?makeAligned@Matrix4f@@QAEXAAVVector3f@@M@Z @1050
    ?makeAnimSRT@AnimData@@UAEXHPAVMatrix4f@@0PAVAnimDataInfo@@M@Z @1051
    ?makeAnimSRT@AnimDck@@UAEXHPAVMatrix4f@@0PAVAnimDataInfo@@M@Z @1052
    ?makeBallRotate@Matrix4f@@QAEXAAVVector3f@@@Z @1053
    ?makeBillVector@Matrix4f@@QAEXAAVVector3f@@AAV1@0@Z @1054
    ?makeConcatSRT@Matrix4f@@QAEXPAV1@AAV1@AAVSRT@@@Z @1055
    ?makeIdentity@Matrix4f@@QAEXXZ @1056
    ?makeInstance@BaseShape@@QAEXAAVShapeDynMaterials@@H@Z @1057
    ?makeLookat@Matrix4f@@QAEXAAVVector3f@@000@Z @1058
    ?makeLookat@Matrix4f@@QAEXAAVVector3f@@0PAV2@@Z @1059
    ?makeLookfrom@Matrix4f@@QAEXAAVVector3f@@0@Z @1060
    ?makeNormalIndexes@BaseShape@@QAEXPA_G@Z @1061
    ?makeOrtho@Matrix4f@@QAEXMMMMMMM@Z @1062
    ?makePerspective@Matrix4f@@QAEXMMMM@Z @1063
    ?makeProjection@Matrix4f@@QAEXAAVVector3f@@AAVPlane@@@Z @1064
    ?makeReflection@Matrix4f@@QAEXAAVPlane@@@Z @1065
    ?makeResident@CacheTexture@@UAEXXZ @1066
    ?makeResident@Texture@@UAEXXZ @1067
    ?makeRotate@Matrix4f@@QAEXAAVVector3f@@M@Z @1068
    ?makeRotate@Matrix4f@@QAEXAAVVector3f@@MM@Z @1069
    ?makeRouteGroup@BaseShape@@UAEPAVRouteGroup@@XZ @1070
    ?makeSRT@Matrix4f@@QAEXAAVVector3f@@00@Z @1071
    ?makeSRT@Matrix4f@@QAEXVSRT@@@Z @1072
    ?makeVQS@Matrix4f@@QAEXAAVVector3f@@AAVQuat@@0@Z @1073
    ?mallocL@AyuCache@@QAEPAX_I@Z @1074
    ?match@ID32@@QAE_N_ID@Z @1075
    ?menuPlugins@Module@@QAEXAAVMenuPlugin@@PAUHMENU__@@@Z @1076
    ?middle@Vector3f@@QAEXAAV1@0@Z @1077
    ?modMgr@@3PAVModuleMgr@@A @1078
    ?msgCommand@BaseShape@@UAEXAAVDataMsg@@@Z @1079
    ?msgCommand@EditNode@@UAEXAAVDataMsg@@@Z @1080
    ?multMatrix@Vector3f@@QAEXAAVMatrix4f@@@Z @1081
    ?multMatrixTo@Vector3f@@QAEXAAVMatrix4f@@AAV1@@Z @1082
    ?multiply@Matrix4f@@QAEXAAV1@@Z @1083
    ?multiply@Quat@@QAEXAAV1@@Z @1084
    ?multiply@Vector3f@@QAEXM@Z @1085
    ?multiplyTo@Matrix4f@@QAEXAAV1@0@Z @1086
    ?multiplyTo@Quat@@QAEXAAV1@0@Z @1087
    ?negate@Vector3f@@QAEXXZ @1088
    ?newCollInfoButton@ObjCollInfo@@QAEXAAVAgeServer@@@Z @1089
    ?newFrame@Timers@@QAEXXZ @1090
    ?nextChar@CmdStream@@QAEDXZ @1091
    ?nodeMgr@@3PAVNodeMgr@@A @1092
    ?normalise@Quat@@QAEXXZ @1093
    ?normalise@Vector3f@@QAEMXZ @1094
    ?normalize@Vector3f@@QAEXXZ @1095
    ?offsetGXtoGL@Texture@@QAEHH@Z @1096
    ?offsetGXtoGL@Texture@@SAHHHHH@Z @1097
    ?onceInit@StdSystem@@QAEXXZ @1098
    ?open@AtxFileStream@@QAE_NPAD_I@Z @1099
    ?open@AtxStream@@QAE_NPADH@Z @1100
    ?open@BufferedInputStream@@QAEXPAVStream@@@Z @1101
    ?open@WSocket@@QAE_NPADH@Z @1102
    ?openFile@StdSystem@@UAEPAVRandomAccessStream@@PAD_N1@Z @1103
    ?openFile@System@@UAEPAVRandomAccessStream@@PAD_N1@Z @1104
    ?openRoute@AtxDirectRouter@@UAE_NPAVAtxStream@@H@Z @1105
    ?optimize@BaseShape@@UAEXXZ @1106
    ?optimize@Shape@@UAEXXZ @1107
    ?output@Vector3f@@QAEXAAV1@@Z @1108
    ?outputTriData@DispList@@QAEXAAVRandomAccessStream@@_I_N@Z @1109
    ?overrideAnim@BaseShape@@QAEXHPAVAnimContext@@@Z @1110
    ?overrideAnim@Joint@@QAEXPAVAnimContext@@@Z @1111
    ?padFile@RandomAccessStream@@QAEX_I@Z @1112
    ?padFileTo@RandomAccessStream@@QAEX_I0@Z @1113
    ?paintRender@RenderWindow@@QAEXPAVRectArea@@@Z @1114
    ?parse@AnimDca@@QAEXPAVCmdStream@@@Z @1115
    ?parse@AnimDck@@QAEXPAVCmdStream@@@Z @1116
    ?parse@SceneData@@QAEXPAVCmdStream@@@Z @1117
    ?parseArchiveDirectory@StdSystem@@UAEXPAD0@Z @1118
    ?pending@WSocket@@QAEHXZ @1119
    ?perspPrintf@Graphics@@UAAXPAVFont@@AAVVector3f@@HHPADZZ @1120
    ?playAnim@AnimData@@QAEXAAVAgeServer@@@Z @1121
    ?pointInside@RectArea@@QAE_NHH@Z @1122
    ?pop@AyuStack@@QAEXXZ @1123
    ?prepareTriList@DispList@@QAEXPAVTriStripifier@@@Z @1124
    ?print@ID32@@QAEXXZ @1125
    ?print@Stream@@QAAXPADZZ @1126
    ?procCmd@BaseApp@@UAEXPAD@Z @1127
    ?processMessage@AppWindow@@UAEHPAUHWND__@@IIJ@Z @1128
    ?processMessage@ComboBox@@UAEHPAUHWND__@@IIJ@Z @1129
    ?processMessage@EditBox@@UAEHPAUHWND__@@IIJ@Z @1130
    ?processMessage@OptionBox@@UAEHPAUHWND__@@IIJ@Z @1131
    ?processMessage@RenderWindow@@UAEHPAUHWND__@@IIJ@Z @1132
    ?processMessage@SplitBar@@UAEHPAUHWND__@@IIJ@Z @1133
    ?processMessage@ToolWindow@@UAEHPAUHWND__@@IIJ@Z @1134
    ?processMessage@UIWindow@@UAEHPAUHWND__@@IIJ@Z @1135
    ?project@Vector3f@@QAEXAAV1@@Z @1136
    ?projectCamPoint@Camera@@QAEMAAVVector3f@@@Z @1137
    ?projectVector@CullFrustum@@QAEXAAVVector3f@@0@Z @1138
    ?projectWorldPoint@Camera@@QAEMAAVGraphics@@AAVVector3f@@@Z @1139
    ?purgeAll@TextureCacher@@QAEXXZ @1140
    ?push@AyuStack@@QAEPAXH@Z @1141
    ?qdist2@@YAMMMMM@Z @1142
    ?qdist3@@YAMMMMMMM@Z @1143
    ?read@AnimDca@@UAEXAAVRandomAccessStream@@@Z @1144
    ?read@AnimDck@@UAEXAAVRandomAccessStream@@@Z @1145
    ?read@AtxFileStream@@UAEXPAXH@Z @1146
    ?read@AtxStream@@UAEXPAXH@Z @1147
    ?read@BaseCollTriInfo@@QAEXAAVRandomAccessStream@@@Z @1148
    ?read@BaseRoomInfo@@QAEXAAVRandomAccessStream@@@Z @1149
    ?read@BaseShape@@UAEXAAVRandomAccessStream@@@Z @1150
    ?read@BoundBox@@QAEXAAVRandomAccessStream@@@Z @1151
    ?read@BufferedInputStream@@UAEXPAXH@Z @1152
    ?read@BufferedStream@@UAEXPAXH@Z @1153
    ?read@Colour@@QAEXAAVStream@@@Z @1154
    ?read@CoreNode@@UAEXAAVRandomAccessStream@@@Z @1155
    ?read@DataChunk@@QAEXAAVRandomAccessStream@@@Z @1156
    ?read@DispList@@UAEXAAVRandomAccessStream@@@Z @1157
    ?read@Envelope@@QAEXAAVRandomAccessStream@@@Z @1158
    ?read@ID32@@QAEXAAVRandomAccessStream@@@Z @1159
    ?read@Joint@@UAEXAAVRandomAccessStream@@@Z @1160
    ?read@Material@@UAEXAAVRandomAccessStream@@@Z @1161
    ?read@Mesh@@UAEXAAVRandomAccessStream@@@Z @1162
    ?read@MtxGroup@@QAEXAAVRandomAccessStream@@@Z @1163
    ?read@PVWCombiner@@QAEXAAVRandomAccessStream@@@Z @1164
    ?read@PVWKeyInfoF32@@QAEXAAVRandomAccessStream@@@Z @1165
    ?read@PVWKeyInfoS10@@QAEXAAVRandomAccessStream@@@Z @1166
    ?read@PVWKeyInfoU8@@QAEXAAVRandomAccessStream@@@Z @1167
    ?read@PVWLightingInfo@@QAEXAAVRandomAccessStream@@@Z @1168
    ?read@PVWPeInfo@@QAEXAAVRandomAccessStream@@@Z @1169
    ?read@PVWPolygonColourInfo@@QAEXAAVRandomAccessStream@@@Z @1170
    ?read@PVWTevColReg@@QAEXAAVRandomAccessStream@@@Z @1171
    ?read@PVWTevInfo@@QAEXAAVRandomAccessStream@@@Z @1172
    ?read@PVWTevStage@@QAEXAAVRandomAccessStream@@@Z @1173
    ?read@PVWTexGenData@@QAEXAAVRandomAccessStream@@@Z @1174
    ?read@PVWTextureData@@QAEXAAVRandomAccessStream@@@Z @1175
    ?read@PVWTextureInfo@@QAEXAAVRandomAccessStream@@@Z @1176
    ?read@Plane@@QAEXAAVRandomAccessStream@@@Z @1177
    ?read@RamStream@@UAEXPAXH@Z @1178
    ?read@SRT@@QAEXAAVRandomAccessStream@@@Z @1179
    ?read@ShortColour@@QAEXAAVRandomAccessStream@@@Z @1180
    ?read@Stream@@UAEXPAXH@Z @1181
    ?read@TcpStream@@UAEXPAXH@Z @1182
    ?read@TexAttr@@UAEXAAVRandomAccessStream@@@Z @1183
    ?read@TexImg@@UAEXAAVRandomAccessStream@@@Z @1184
    ?read@Texture@@QAEXAAVRandomAccessStream@@@Z @1185
    ?read@Vector2f@@QAEXAAVStream@@@Z @1186
    ?read@Vector2i@@QAEXAAVStream@@@Z @1187
    ?read@Vector3f@@QAEXAAVStream@@@Z @1188
    ?read@VtxMatrix@@QAEXAAVRandomAccessStream@@@Z @1189
    ?read@WSocket@@QAEXPAXH@Z @1190
    ?readByte@Stream@@UAE_EXZ @1191
    ?readFloat@Stream@@UAEMXZ @1192
    ?readFrom@RandomAccessStream@@QAEXHPAXH@Z @1193
    ?readInt@Stream@@UAEHXZ @1194
    ?readIntFrom@RandomAccessStream@@QAEHH@Z @1195
    ?readPropValue@AgeServer@@QAEXW4PROP_TYPE@@PAX@Z @1196
    ?readShort@Stream@@UAEFXZ @1197
    ?readString@Stream@@UAEPADXZ @1198
    ?readString@Stream@@UAEXAAVString@@@Z @1199
    ?readString@Stream@@UAEXPADH@Z @1200
    ?readTexData@TexImg@@QAEXPAVTexture@@AAVRandomAccessStream@@PA_E@Z @1201
    ?recAddMatpoly@BaseShape@@QAEXPAVJoint@@H@Z @1202
    ?recFindNode@NodeMgr@@QAEXPAVCoreNode@@PAD@Z @1203
    ?recOverrideAnim@Joint@@QAEXPAVAnimContext@@@Z @1204
    ?recShowHierarchy@Joint@@QAEXXZ @1205
    ?recTraverseMaterials@BaseShape@@QAEXPAVJoint@@PAV?$IDelegate2@PAVJoint@@_I@@@Z @1206
    ?recalcLighting@Light@@QAEXAAVAgeServer@@@Z @1207
    ?reflect@Plane@@QAEXAAVVector3f@@@Z @1208
    ?reflectVector@Plane@@QAEXAAVVector3f@@@Z @1209
    ?refresh@Light@@QAEXAAVGraphics@@PAVLFlareGroup@@@Z @1210
    ?refresh@LightGroup@@QAEXAAVGraphics@@PAVMatrix4f@@@Z @1211
    ?refresh@RouteGroup@@QAEXAAVGraphics@@PAVEditNode@@@Z @1212
    ?refresh@RoutePoint@@QAEXAAVGraphics@@@Z @1213
    ?refreshSection@Light@@QAEXAAVAgeServer@@@Z @1214
    ?refreshWindow@UIWindow@@UAEXXZ @1215
    ?registerLFlare@StdSystem@@QAEPAVLFlareGroup@@PAVTexture@@@Z @1216
    ?releaseIndex@AyuCache@@QAEXH@Z @1217
    ?remove@CacheInfo@@QAEXXZ @1218
    ?remove@CachedShape@@QAEXXZ @1219
    ?remove@GfxobjInfo@@QAEXXZ @1220
    ?removeMtxDependancy@BaseShape@@QAEXXZ @1221
    ?removeOldest@AnimFrameCacher@@QAEXXZ @1222
    ?removeOldest@TextureCacher@@QAEXXZ @1223
    ?render2d@BaseShape@@UAEXAAVGraphics@@@Z @1224
    ?render2d@EditNode@@UAEXAAVGraphics@@AAH@Z @1225
    ?render2d@RouteGroup@@UAEXAAVGraphics@@AAH@Z @1226
    ?render@BaseShape@@UAEXAAVGraphics@@@Z @1227
    ?render@Joint@@QAEXAAVGraphics@@@Z @1228
    ?render@Node@@UAEXAAVGraphics@@@Z @1229
    ?renderall@GameApp@@QAEXXZ @1230
    ?reset@AtxDirectRouter@@UAEXXZ @1231
    ?reset@AyuStack@@QAEXH@Z @1232
    ?reset@AyuStack@@QAEXXZ @1233
    ?reset@Controller@@QAEX_I@Z @1234
    ?reset@Timers@@QAEXXZ @1235
    ?resetBound@BoundBox@@QAEXXZ @1236
    ?resetBuffer@BufferedInputStream@@QAEXXZ @1237
    ?resetCacheBuffer@Graphics@@QAEXXZ @1238
    ?resetHeap@StdSystem@@QAEXHH@Z @1239
    ?resetLFlares@StdSystem@@QAEXXZ @1240
    ?resetLights@Graphics@@QAEXXZ @1241
    ?resetMatrixBuffer@Graphics@@QAEXXZ @1242
    ?resetPending@StdSystem@@QAE_NXZ @1243
    ?resizeChildren@UIWindow@@UAEPAXPAXAAVRectArea@@@Z @1244
    ?resizeFrame@UIWindow@@UAEPAXPAXAAVRectArea@@@Z @1245
    ?resolveTextureNames@BaseShape@@QAEXXZ @1246
    ?restoreAnimOverrides@BaseShape@@QAEXXZ @1247
    ?returnMessage@UIWindow@@UAEHPAUHWND__@@IIJ@Z @1248
    ?rightDir@Camera@@QAEXAAVVector3f@@@Z @1249
    ?rnd@BaseApp@@QAEMM@Z @1250
    ?rnd@BaseApp@@QAEMXZ @1251
    ?rotate@Matrix4f@@QAEXAAVVector3f@@@Z @1252
    ?rotate@Matrix4f@@QAEXAAVVector3f@@M@Z @1253
    ?rotate@Matrix4f@@QAEXMMM@Z @1254
    ?rotate@Quat@@QAEXAAVVector3f@@M@Z @1255
    ?rotate@Vector3f@@QAEXAAVMatrix4f@@@Z @1256
    ?rotate@Vector3f@@QAEXAAVQuat@@@Z @1257
    ?rotateInverse@Vector3f@@QAEXAAVQuat@@@Z @1258
    ?rotateTo@Vector3f@@QAEXAAVMatrix4f@@AAV1@@Z @1259
    ?rotateTranspose@Vector3f@@QAEXAAVMatrix4f@@@Z @1260
    ?rotateX@Matrix4f@@QAEXM@Z @1261
    ?rotateY@Matrix4f@@QAEXM@Z @1262
    ?rotateZ@Matrix4f@@QAEXM@Z @1263
    ?roundAng@@YAMM@Z @1264
    ?run@System@@QAEHPAVBaseApp@@@Z @1265
    ?saveini@LightFlare@@QAEXPADAAVRandomAccessStream@@@Z @1266
    ?saveini@LightGroup@@QAEXPADAAVRandomAccessStream@@@Z @1267
    ?saveini@ObjCollInfo@@QAEXPADAAVRandomAccessStream@@@Z @1268
    ?saveini@RouteGroup@@QAEXPADAAVRandomAccessStream@@@Z @1269
    ?scale2@Vector3f@@QAEXMAAV1@@Z @1270
    ?scale@Matrix4f@@QAEXAAVVector3f@@@Z @1271
    ?scale@Vector3f@@QAEXM@Z @1272
    ?searchFiles@System@@QAEXPAD0PAV?$IDelegate2@PAD_I@@_N@Z @1273
    ?sectionJoint@Joint@@QAEXAAVAgeServer@@@Z @1274
    ?sectionJointsChange@ObjCollInfo@@QAEXAAVAgeServer@@@Z @1275
    ?selOption@ComboBox@@QAEXH@Z @1276
    ?selectionChanged@OptionBox@@UAEXH@Z @1277
    ?set2DRoot@StdSystem@@QAEXPAD0@Z @1278
    ?set@Colour@@QAEX_E000@Z @1279
    ?set@KTri@@QAEXAAVVector3f@@00@Z @1280
    ?set@Quat@@QAEXMMMM@Z @1281
    ?set@RectArea@@QAEXHHHH@Z @1282
    ?set@Vector2f@@QAEXMM@Z @1283
    ?set@Vector2i@@QAEXHH@Z @1284
    ?set@Vector3f@@QAEXABM00@Z @1285
    ?set@Vector3f@@QAEXABV1@@Z @1286
    ?setASync@WSocket@@QAEXPAUHWND__@@_I1H@Z @1287
    ?setActive@StdSystem@@QAEX_N@Z @1288
    ?setAllocType@AyuStack@@QAEHH@Z @1289
    ?setAmbient@Graphics@@UAEXXZ @1290
    ?setAtxRouter@System@@QAEXPAVAtxRouter@@@Z @1291
    ?setBlendMode@Graphics@@UAEX_E00@Z @1292
    ?setBoundOffset@CullFrustum@@QAEXPAVVector3f@@@Z @1293
    ?setClient@UIFrame@@QAEXAAVRectArea@@@Z @1294
    ?setColour@Material@@QAEXAAVColour@@@Z @1295
    ?setColour@TexImg@@QAEXAAVColour@@@Z @1296
    ?setDataRoot@StdSystem@@QAEXPAD@Z @1297
    ?setDataSize@DataChunk@@QAEXH@Z @1298
    ?setFade@StdSystem@@QAEXMM@Z @1299
    ?setFlag@Node@@QAEXH@Z @1300
    ?setFlag@Node@@QAEXH_N@Z @1301
    ?setFlags@Node@@QAEXH@Z @1302
    ?setFrame@UIFrame@@QAEXAAVRectArea@@@Z @1303
    ?setFrameClamp@StdSystem@@QAEXH@Z @1304
    ?setHeap@StdSystem@@QAEHH@Z @1305
    ?setID@ID32@@QAEX_I@Z @1306
    ?setID@RouteGroup@@QAEX_I@Z @1307
    ?setLength@AtxFileStream@@UAEXH@Z @1308
    ?setLength@RamStream@@UAEXH@Z @1309
    ?setLightDistAttn@Light@@QAEXMMH@Z @1310
    ?setLightParallel@Light@@QAEXXZ @1311
    ?setLightSpot@Light@@QAEXMH@Z @1312
    ?setLightcam@Graphics@@UAEXPAVLightCamera@@@Z @1313
    ?setMatHandler@Graphics@@UAEXPAVMaterialHandler@@@Z @1314
    ?setMaterial@MaterialHandler@@UAEXPAVMaterial@@@Z @1315
    ?setName@CoreNode@@QAEXPAD@Z @1316
    ?setOnChange@AgeServer@@QAEXPAV?$IDelegate1@AAVAgeServer@@@@@Z @1317
    ?setOnChange@AgeServer@@QAEXPAVIDelegate@@@Z @1318
    ?setPosition@AtxFileStream@@UAEXH@Z @1319
    ?setPosition@BufferedStream@@UAEXH@Z @1320
    ?setPosition@RamStream@@UAEXH@Z @1321
    ?setPosition@RandomAccessStream@@UAEXH@Z @1322
    ?setPosition@SRTNode@@QAEXAAVVector3f@@@Z @1323
    ?setRotation@SRTNode@@QAEXAAVVector3f@@@Z @1324
    ?setScale@SRTNode@@QAEXAAVVector3f@@@Z @1325
    ?setSectionRefresh@AgeServer@@QAEXPAV?$IDelegate1@AAVAgeServer@@@@@Z @1326
    ?setState@AnimContext@@QAEXPAVAnimData@@M@Z @1327
    ?setStreamType@System@@QAEHH@Z @1328
    ?setTexMatrix@MaterialHandler@@UAEX_N@Z @1329
    ?setTexture@Font@@QAEXPAVTexture@@HH@Z @1330
    ?setTextureBase@StdSystem@@QAEXPAD0@Z @1331
    ?setTranslation@Matrix4f@@QAEXAAVVector3f@@@Z @1332
    ?setTranslation@Matrix4f@@QAEXMMM@Z @1333
    ?setType@Node@@QAEXH@Z @1334
    ?setVerticalFilter@Graphics@@UAEXPA_E@Z @1335
    ?setVideoMode@System@@QAE_N_NHHH@Z @1336
    ?setWindow@AtxDirectRouter@@UAEX_I@Z @1337
    ?setWindow@AtxRouter@@UAEX_I@Z @1338
    ?showInfo@ObjCollInfo@@QAEXAAVGraphics@@AAVMatrix4f@@@Z @1339
    ?showTimes@Timers@@QAEXXZ @1340
    ?shutdownOpenGL@RenderWindow@@QAEXXZ @1341
    ?sizeWindow@UIWindow@@QAEXHHH@Z @1342
    ?skipChunk@BaseShape@@QAEXAAVRandomAccessStream@@_I@Z @1343
    ?skipLine@CmdStream@@QAEPADXZ @1344
    ?skipPadding@RandomAccessStream@@QAEX_I@Z @1345
    ?sleep@System@@QAEXM@Z @1346
    ?slerp@Quat@@QAEXAAV1@MH@Z @1347
    ?sndPlaySe@System@@UAEX_I@Z @1348
    ?softReset@BaseApp@@UAEXXZ @1349
    ?softReset@StdSystem@@QAEXXZ @1350
    ?sprint@ID32@@QAEXPAD@Z @1351
    ?sqrDistance@@YAMAAVKSegment@@0PAM1@Z @1352
    ?sqrDistance@@YAMAAVKSegment@@AAVKRect@@PAM22@Z @1353
    ?sqrDistance@@YAMAAVKSegment@@AAVKTri@@PAM22@Z @1354
    ?sqrDistance@@YAMAAVKTri@@AAVKRect@@PAM222@Z @1355
    ?sqrDistance@@YAMAAVVector3f@@AAVKTri@@PAM2@Z @1356
    ?squaredLength@Vector3f@@QAEMXZ @1357
    ?start@Timers@@QAEXPAD_N@Z @1358
    ?startAgeServer@BaseApp@@QAEXXZ @1359
    ?startLoading@StdSystem@@UAEXPAVLoadIdler@@_N_I@Z @1360
    ?startThread@@YAPAXPAX0H@Z @1361
    ?statbuff@CmdStream@@2PADA @1362
    ?stop@Timers@@QAEXPAD@Z @1363
    ?stopAgeServer@BaseApp@@QAEXXZ @1364
    ?stringDup@StdSystem@@SAPADPAD@Z @1365
    ?stringHeight@Font@@QAEHPAD@Z @1366
    ?stringWidth@Font@@QAEHPAD@Z @1367
    ?sub2@Vector3f@@QAEXAAV1@0@Z @1368
    ?sub@Vector3f@@QAEXAAV1@0@Z @1369
    ?sub@Vector3f@@QAEXAAV1@@Z @1370
    ?sysCon@@3PAVStream@@A @1371
    ?sysCurrWnd@@3PAUHWND__@@A @1372
    ?sysHInst@@3PAUHINSTANCE__@@A @1373
    ?testRectangle@Graphics@@UAEXAAVRectArea@@@Z @1374
    ?toFloat@String@@QAEMXZ @1375
    ?toInt@String@@QAEHXZ @1376
    ?toInt@String@@SAHPAD@Z @1377
    ?togFlag@Node@@QAEXH@Z @1378
    ?touchCallback@DynCollObject@@UAEXAAVPlane@@AAVVector3f@@1@Z @1379
    ?trackMouse@HorzSplitBar@@UAEXHHH@Z @1380
    ?trackMouse@VertSplitBar@@UAEXHHH@Z @1381
    ?translate@Matrix4f@@QAEXMMM@Z @1382
    ?transposeTo@Matrix4f@@QAEXAAV1@@Z @1383
    ?triRectDistance@@YAMPAVVector3f@@00AAVBoundBox@@_N@Z @1384
    ?uiMgr@@3PAVUIMgr@@A @1385
    ?unlock@AtxDirectRouter@@UAEXXZ @1386
    ?unlock@AtxRouter@@UAEXXZ @1387
    ?upDir@Camera@@QAEXAAVVector3f@@@Z @1388
    ?updAge@Light@@UAEXAAVAgeServer@@@Z @1389
    ?update@AgeServer@@QAEHXZ @1390
    ?update@BaseShape@@UAEXXZ @1391
    ?update@CamDataInfo@@QAEXMAAVMatrix4f@@@Z @1392
    ?update@Controller@@UAEXXZ @1393
    ?update@ControllerMgr@@QAEXXZ @1394
    ?update@CullFrustum@@QAEXMMMM@Z @1395
    ?update@Light@@QAEXXZ @1396
    ?update@LightDataInfo@@QAEXM@Z @1397
    ?update@Node@@UAEXXZ @1398
    ?update@RenderWindow@@UAEXXZ @1399
    ?update@SRTNode@@UAEXXZ @1400
    ?updateAnim@BaseShape@@QAEXAAVGraphics@@AAVMatrix4f@@PAM@Z @1401
    ?updateCont@Controller@@QAEX_I@Z @1402
    ?updateContext@ShapeDynMaterials@@QAEXXZ @1403
    ?updateController@ControllerMgr@@QAEXPAVController@@@Z @1404
    ?updateID@ID32@@QAEXXZ @1405
    ?updateID@RouteGroup@@QAEXXZ @1406
    ?updateInfo@AnimFrameCacher@@QAEXPAVAnimCacheInfo@@@Z @1407
    ?updateInfo@TextureCacher@@QAEXPAVCacheTexture@@@Z @1408
    ?updateMove@UIWindow@@QAEXHH@Z @1409
    ?updateSizes@UIWindow@@UAEXHH@Z @1410
    ?updateString@ID32@@QAEXXZ @1411
    ?updateSysClock@System@@QAEXXZ @1412
    ?updateViewPlanes@CullFrustum@@QAEXMMMM@Z @1413
    ?useDList@Graphics@@UAEX_I@Z @1414
    ?useHeap@BaseApp@@UAEXH@Z @1415
    ?useMaterial@Graphics@@UAEXPAVMaterial@@@Z @1416
    ?vPrintf@Stream@@QAEXPAD0@Z @1417
    ?vectorToWorldPlane@CullFrustum@@QAEXAAVVector3f@@AAVCullingPlane@@@Z @1418
    ?videoReset@Graphics@@UAEXXZ @1419
    ?waitRetrace@System@@QAEXXZ @1420
    ?whichSide@Plane@@QAEHAAVVector3f@@@Z @1421
    ?whiteSpace@CmdStream@@QAE_ND@Z @1422
    ?width@RectArea@@QAEHXZ @1423
    ?write@AnimDca@@UAEXAAVRandomAccessStream@@@Z @1424
    ?write@AnimDck@@UAEXAAVRandomAccessStream@@@Z @1425
    ?write@AtxFileStream@@UAEXPAXH@Z @1426
    ?write@AtxStream@@UAEXPAXH@Z @1427
    ?write@BaseCollTriInfo@@QAEXAAVRandomAccessStream@@@Z @1428
    ?write@BaseRoomInfo@@QAEXAAVRandomAccessStream@@@Z @1429
    ?write@BoundBox@@QAEXAAVRandomAccessStream@@@Z @1430
    ?write@BufferedOutputStream@@UAEXPAXH@Z @1431
    ?write@Colour@@QAEXAAVStream@@@Z @1432
    ?write@CoreNode@@UAEXAAVRandomAccessStream@@@Z @1433
    ?write@DataChunk@@QAEXAAVRandomAccessStream@@@Z @1434
    ?write@Envelope@@QAEXAAVRandomAccessStream@@@Z @1435
    ?write@ID32@@QAEXAAVRandomAccessStream@@@Z @1436
    ?write@Joint@@UAEXAAVRandomAccessStream@@@Z @1437
    ?write@Material@@UAEXAAVRandomAccessStream@@@Z @1438
    ?write@PVWCombiner@@QAEXAAVRandomAccessStream@@@Z @1439
    ?write@PVWKeyInfoF32@@QAEXAAVRandomAccessStream@@@Z @1440
    ?write@PVWKeyInfoS10@@QAEXAAVRandomAccessStream@@@Z @1441
    ?write@PVWKeyInfoU8@@QAEXAAVRandomAccessStream@@@Z @1442
    ?write@PVWLightingInfo@@QAEXAAVRandomAccessStream@@@Z @1443
    ?write@PVWPeInfo@@QAEXAAVRandomAccessStream@@@Z @1444
    ?write@PVWPolygonColourInfo@@QAEXAAVRandomAccessStream@@@Z @1445
    ?write@PVWTevColReg@@QAEXAAVRandomAccessStream@@@Z @1446
    ?write@PVWTevInfo@@QAEXAAVRandomAccessStream@@@Z @1447
    ?write@PVWTevStage@@QAEXAAVRandomAccessStream@@@Z @1448
    ?write@PVWTexGenData@@QAEXAAVRandomAccessStream@@@Z @1449
    ?write@PVWTextureData@@QAEXAAVRandomAccessStream@@@Z @1450
    ?write@PVWTextureInfo@@QAEXAAVRandomAccessStream@@@Z @1451
    ?write@Plane@@QAEXAAVRandomAccessStream@@@Z @1452
    ?write@RamStream@@UAEXPAXH@Z @1453
    ?write@SRT@@QAEXAAVRandomAccessStream@@@Z @1454
    ?write@ShortColour@@QAEXAAVRandomAccessStream@@@Z @1455
    ?write@Stream@@UAEXPAXH@Z @1456
    ?write@TcpStream@@UAEXPAXH@Z @1457
    ?write@TexAttr@@UAEXAAVRandomAccessStream@@@Z @1458
    ?write@TexImg@@UAEXAAVRandomAccessStream@@@Z @1459
    ?write@Texture@@QAEXPAVStream@@@Z @1460
    ?write@Vector2f@@QAEXAAVStream@@@Z @1461
    ?write@Vector2i@@QAEXAAVStream@@@Z @1462
    ?write@Vector3f@@QAEXAAVStream@@@Z @1463
    ?write@VtxMatrix@@QAEXAAVRandomAccessStream@@@Z @1464
    ?write@WSocket@@QAEXPAXH@Z @1465
    ?writeByte@Stream@@UAEX_E@Z @1466
    ?writeFloat@Stream@@UAEXM@Z @1467
    ?writeInt@Stream@@UAEXH@Z @1468
    ?writeIntTo@RandomAccessStream@@QAEXHH@Z @1469
    ?writeProp@AgeServer@@QAEXW4PROP_TYPE@@PAX@Z @1470
    ?writePropValue@AgeServer@@QAEXW4PROP_TYPE@@PAX@Z @1471
    ?writeShort@Stream@@UAEXF@Z @1472
    ?writeString@Stream@@UAEXAAVString@@@Z @1473
    ?writeString@Stream@@UAEXPAD@Z @1474
    ?writeTo@RandomAccessStream@@QAEXHPAXH@Z @1475
    ?writeType@AnimData@@UAEXAAVRandomAccessStream@@@Z @1476
    ?writeType@AnimDca@@UAEXAAVRandomAccessStream@@@Z @1477
    ?writeType@AnimDck@@UAEXAAVRandomAccessStream@@@Z @1478
